
banner.elf:     file format elf64-littleriscv


Disassembly of section .text:

0000000080000000 <libtarg_get_cycles>:
    80000000:	b0002573          	csrr	a0,mcycle
    80000004:	8082                	ret

0000000080000006 <memset>:
    80000006:	ae7d                	j	800003c4 <libmin_memset>

0000000080000008 <memcpy>:
    80000008:	a645                	j	800003a8 <libmin_memcpy>

000000008000000a <uart_putchar>:
    8000000a:	100002b7          	lui	t0,0x10000
    8000000e:	00a28023          	sb	a0,0(t0) # 10000000 <_stack_len+0xfff8000>
    80000012:	8082                	ret

0000000080000014 <baremetal_exit>:
    80000014:	00007717          	auipc	a4,0x7
    80000018:	34a73223          	sd	a0,836(a4) # 80007358 <magic_mem+0x8>
    8000001c:	05d00713          	li	a4,93
    80000020:	00007797          	auipc	a5,0x7
    80000024:	33078793          	add	a5,a5,816 # 80007350 <magic_mem>
    80000028:	e398                	sd	a4,0(a5)
    8000002a:	00007717          	auipc	a4,0x7
    8000002e:	32073b23          	sd	zero,822(a4) # 80007360 <magic_mem+0x10>
    80000032:	00007717          	auipc	a4,0x7
    80000036:	32073b23          	sd	zero,822(a4) # 80007368 <magic_mem+0x18>
    8000003a:	00007717          	auipc	a4,0x7
    8000003e:	32073b23          	sd	zero,822(a4) # 80007370 <magic_mem+0x20>
    80000042:	00007717          	auipc	a4,0x7
    80000046:	32073b23          	sd	zero,822(a4) # 80007378 <magic_mem+0x28>
    8000004a:	e3bc                	sd	a5,64(a5)
    8000004c:	67bc                	ld	a5,72(a5)
    8000004e:	00007717          	auipc	a4,0x7
    80000052:	32073923          	sd	zero,818(a4) # 80007380 <magic_mem+0x30>
    80000056:	00007717          	auipc	a4,0x7
    8000005a:	32073923          	sd	zero,818(a4) # 80007388 <magic_mem+0x38>
    8000005e:	e391                	bnez	a5,80000062 <baremetal_exit+0x4e>
    80000060:	a001                	j	80000060 <baremetal_exit+0x4c>
    80000062:	00007797          	auipc	a5,0x7
    80000066:	3207bb23          	sd	zero,822(a5) # 80007398 <fromhost>
    8000006a:	a001                	j	8000006a <baremetal_exit+0x56>

000000008000006c <libtarg_success>:
    8000006c:	1141                	add	sp,sp,-16
    8000006e:	4501                	li	a0,0
    80000070:	e406                	sd	ra,8(sp)
    80000072:	fa3ff0ef          	jal	80000014 <baremetal_exit>

0000000080000076 <libtarg_fail>:
    80000076:	1141                	add	sp,sp,-16
    80000078:	e406                	sd	ra,8(sp)
    8000007a:	f9bff0ef          	jal	80000014 <baremetal_exit>

000000008000007e <libtarg_putc>:
    8000007e:	b771                	j	8000000a <uart_putchar>

0000000080000080 <libtarg_sbrk>:
    80000080:	00007717          	auipc	a4,0x7
    80000084:	2d070713          	add	a4,a4,720 # 80007350 <magic_mem>
    80000088:	4b3c                	lw	a5,80(a4)
    8000008a:	85aa                	mv	a1,a0
    8000008c:	00007697          	auipc	a3,0x7
    80000090:	d5c6b683          	ld	a3,-676(a3) # 80006de8 <_GLOBAL_OFFSET_TABLE_+0x20>
    80000094:	02079513          	sll	a0,a5,0x20
    80000098:	9101                	srl	a0,a0,0x20
    8000009a:	9536                	add	a0,a0,a3
    8000009c:	c195                	beqz	a1,800000c0 <libtarg_sbrk+0x40>
    8000009e:	00f586bb          	addw	a3,a1,a5
    800000a2:	cb34                	sw	a3,80(a4)
    800000a4:	6795                	lui	a5,0x5
    800000a6:	00f6ed63          	bltu	a3,a5,800000c0 <libtarg_sbrk+0x40>
    800000aa:	1141                	add	sp,sp,-16
    800000ac:	00007517          	auipc	a0,0x7
    800000b0:	89450513          	add	a0,a0,-1900 # 80006940 <__clz_tab+0x258>
    800000b4:	e406                	sd	ra,8(sp)
    800000b6:	6a9000ef          	jal	80000f5e <libmin_printf>
    800000ba:	4505                	li	a0,1
    800000bc:	f59ff0ef          	jal	80000014 <baremetal_exit>
    800000c0:	8082                	ret

00000000800000c2 <reset_handler>:
    800000c2:	00007297          	auipc	t0,0x7
    800000c6:	d462b283          	ld	t0,-698(t0) # 80006e08 <_GLOBAL_OFFSET_TABLE_+0x40>
    800000ca:	30529073          	csrw	mtvec,t0
    800000ce:	30502373          	csrr	t1,mtvec
    800000d2:	00530d63          	beq	t1,t0,800000ec <mtvec_set_successfull>
    800000d6:	00007117          	auipc	sp,0x7
    800000da:	d2213103          	ld	sp,-734(sp) # 80006df8 <_GLOBAL_OFFSET_TABLE_+0x30>
    800000de:	429d                	li	t0,7
    800000e0:	fff2c293          	not	t0,t0
    800000e4:	00517133          	and	sp,sp,t0
    800000e8:	f8fff0ef          	jal	80000076 <libtarg_fail>

00000000800000ec <mtvec_set_successfull>:
    800000ec:	00000093          	li	ra,0
    800000f0:	8106                	mv	sp,ra
    800000f2:	8186                	mv	gp,ra
    800000f4:	8206                	mv	tp,ra
    800000f6:	8286                	mv	t0,ra
    800000f8:	8306                	mv	t1,ra
    800000fa:	8386                	mv	t2,ra
    800000fc:	8406                	mv	s0,ra
    800000fe:	8486                	mv	s1,ra
    80000100:	8506                	mv	a0,ra
    80000102:	8586                	mv	a1,ra
    80000104:	8606                	mv	a2,ra
    80000106:	8686                	mv	a3,ra
    80000108:	8706                	mv	a4,ra
    8000010a:	8786                	mv	a5,ra
    8000010c:	8806                	mv	a6,ra
    8000010e:	8886                	mv	a7,ra
    80000110:	8906                	mv	s2,ra
    80000112:	8986                	mv	s3,ra
    80000114:	8a06                	mv	s4,ra
    80000116:	8a86                	mv	s5,ra
    80000118:	8b06                	mv	s6,ra
    8000011a:	8b86                	mv	s7,ra
    8000011c:	8c06                	mv	s8,ra
    8000011e:	8c86                	mv	s9,ra
    80000120:	8d06                	mv	s10,ra
    80000122:	8d86                	mv	s11,ra
    80000124:	8e06                	mv	t3,ra
    80000126:	8e86                	mv	t4,ra
    80000128:	8f06                	mv	t5,ra
    8000012a:	8f86                	mv	t6,ra
    8000012c:	00007117          	auipc	sp,0x7
    80000130:	ccc13103          	ld	sp,-820(sp) # 80006df8 <_GLOBAL_OFFSET_TABLE_+0x30>
    80000134:	429d                	li	t0,7
    80000136:	fff2c293          	not	t0,t0
    8000013a:	00517133          	and	sp,sp,t0

000000008000013e <_start>:
    8000013e:	00007d17          	auipc	s10,0x7
    80000142:	c9ad3d03          	ld	s10,-870(s10) # 80006dd8 <_GLOBAL_OFFSET_TABLE_+0x10>
    80000146:	00007d97          	auipc	s11,0x7
    8000014a:	c9adbd83          	ld	s11,-870(s11) # 80006de0 <_GLOBAL_OFFSET_TABLE_+0x18>
    8000014e:	01bd5763          	bge	s10,s11,8000015c <main_entry>

0000000080000152 <zero_loop>:
    80000152:	000d2023          	sw	zero,0(s10)
    80000156:	0d11                	add	s10,s10,4
    80000158:	ffaddde3          	bge	s11,s10,80000152 <zero_loop>

000000008000015c <main_entry>:
    8000015c:	4501                	li	a0,0
    8000015e:	4581                	li	a1,0
    80000160:	22e010ef          	jal	8000138e <serial_output_init>
    80000164:	165030ef          	jal	80003ac8 <main>
    80000168:	4501                	li	a0,0
    8000016a:	1a6010ef          	jal	80001310 <libmin_sfflush>
    8000016e:	3ac010ef          	jal	8000151a <libmin_success>

0000000080000172 <sleep_loop>:
    80000172:	10500073          	wfi
    80000176:	bff5                	j	80000172 <sleep_loop>

0000000080000178 <default_exc_handler>:
    80000178:	341022f3          	csrr	t0,mepc
    8000017c:	fe513c23          	sd	t0,-8(sp)
    80000180:	ef7ff0ef          	jal	80000076 <libtarg_fail>

0000000080000184 <timer_handler>:
    80000184:	0000006f          	j	80000184 <timer_handler>

0000000080000188 <libmin_atoi>:
    80000188:	00007717          	auipc	a4,0x7
    8000018c:	c7873703          	ld	a4,-904(a4) # 80006e00 <_GLOBAL_OFFSET_TABLE_+0x38>
    80000190:	630c                	ld	a1,0(a4)
    80000192:	87aa                	mv	a5,a0
    80000194:	0007c703          	lbu	a4,0(a5) # 5000 <_min_stack+0x3000>
    80000198:	00171693          	sll	a3,a4,0x1
    8000019c:	96ae                	add	a3,a3,a1
    8000019e:	0006d683          	lhu	a3,0(a3)
    800001a2:	8aa1                	and	a3,a3,8
    800001a4:	ee99                	bnez	a3,800001c2 <libmin_atoi+0x3a>
    800001a6:	02b00693          	li	a3,43
    800001aa:	00d70e63          	beq	a4,a3,800001c6 <libmin_atoi+0x3e>
    800001ae:	02d00613          	li	a2,45
    800001b2:	4681                	li	a3,0
    800001b4:	00c71463          	bne	a4,a2,800001bc <libmin_atoi+0x34>
    800001b8:	4685                	li	a3,1
    800001ba:	0785                	add	a5,a5,1
    800001bc:	4501                	li	a0,0
    800001be:	4829                	li	a6,10
    800001c0:	a819                	j	800001d6 <libmin_atoi+0x4e>
    800001c2:	0785                	add	a5,a5,1
    800001c4:	bfc1                	j	80000194 <libmin_atoi+0xc>
    800001c6:	4681                	li	a3,0
    800001c8:	bfcd                	j	800001ba <libmin_atoi+0x32>
    800001ca:	02a8053b          	mulw	a0,a6,a0
    800001ce:	fd07071b          	addw	a4,a4,-48
    800001d2:	0785                	add	a5,a5,1
    800001d4:	9d19                	subw	a0,a0,a4
    800001d6:	0007c703          	lbu	a4,0(a5)
    800001da:	00171613          	sll	a2,a4,0x1
    800001de:	962e                	add	a2,a2,a1
    800001e0:	00065603          	lhu	a2,0(a2)
    800001e4:	8a11                	and	a2,a2,4
    800001e6:	f275                	bnez	a2,800001ca <libmin_atoi+0x42>
    800001e8:	e299                	bnez	a3,800001ee <libmin_atoi+0x66>
    800001ea:	40a0053b          	negw	a0,a0
    800001ee:	8082                	ret

00000000800001f0 <_isctype>:
    800001f0:	0015071b          	addw	a4,a0,1
    800001f4:	10000793          	li	a5,256
    800001f8:	00e7ed63          	bltu	a5,a4,80000212 <_isctype+0x22>
    800001fc:	0506                	sll	a0,a0,0x1
    800001fe:	00007797          	auipc	a5,0x7
    80000202:	b827b783          	ld	a5,-1150(a5) # 80006d80 <_pctype>
    80000206:	97aa                	add	a5,a5,a0
    80000208:	0007d783          	lhu	a5,0(a5)
    8000020c:	00f5f533          	and	a0,a1,a5
    80000210:	8082                	ret
    80000212:	4501                	li	a0,0
    80000214:	8082                	ret

0000000080000216 <libmin_fail>:
    80000216:	1141                	add	sp,sp,-16
    80000218:	e022                	sd	s0,0(sp)
    8000021a:	85aa                	mv	a1,a0
    8000021c:	842a                	mv	s0,a0
    8000021e:	00006517          	auipc	a0,0x6
    80000222:	74250513          	add	a0,a0,1858 # 80006960 <__clz_tab+0x278>
    80000226:	e406                	sd	ra,8(sp)
    80000228:	537000ef          	jal	80000f5e <libmin_printf>
    8000022c:	8522                	mv	a0,s0
    8000022e:	6402                	ld	s0,0(sp)
    80000230:	60a2                	ld	ra,8(sp)
    80000232:	0141                	add	sp,sp,16
    80000234:	b589                	j	80000076 <libtarg_fail>

0000000080000236 <libmin_getopt>:
    80000236:	00007697          	auipc	a3,0x7
    8000023a:	b1e68693          	add	a3,a3,-1250 # 80006d54 <optind>
    8000023e:	4298                	lw	a4,0(a3)
    80000240:	8e2a                	mv	t3,a0
    80000242:	87b2                	mv	a5,a2
    80000244:	c711                	beqz	a4,80000250 <libmin_getopt+0x1a>
    80000246:	00007717          	auipc	a4,0x7
    8000024a:	16272703          	lw	a4,354(a4) # 800073a8 <optreset>
    8000024e:	cb19                	beqz	a4,80000264 <libmin_getopt+0x2e>
    80000250:	00007717          	auipc	a4,0x7
    80000254:	14072c23          	sw	zero,344(a4) # 800073a8 <optreset>
    80000258:	00007717          	auipc	a4,0x7
    8000025c:	14072a23          	sw	zero,340(a4) # 800073ac <optpos>
    80000260:	4705                	li	a4,1
    80000262:	c298                	sw	a4,0(a3)
    80000264:	4298                	lw	a4,0(a3)
    80000266:	01c75963          	bge	a4,t3,80000278 <libmin_getopt+0x42>
    8000026a:	00371613          	sll	a2,a4,0x3
    8000026e:	962e                	add	a2,a2,a1
    80000270:	00063803          	ld	a6,0(a2)
    80000274:	00081463          	bnez	a6,8000027c <libmin_getopt+0x46>
    80000278:	557d                	li	a0,-1
    8000027a:	8082                	ret
    8000027c:	00084603          	lbu	a2,0(a6)
    80000280:	02d00513          	li	a0,45
    80000284:	00a60e63          	beq	a2,a0,800002a0 <libmin_getopt+0x6a>
    80000288:	0007c783          	lbu	a5,0(a5)
    8000028c:	fea796e3          	bne	a5,a0,80000278 <libmin_getopt+0x42>
    80000290:	2705                	addw	a4,a4,1
    80000292:	c298                	sw	a4,0(a3)
    80000294:	00007797          	auipc	a5,0x7
    80000298:	1107be23          	sd	a6,284(a5) # 800073b0 <optarg>
    8000029c:	4505                	li	a0,1
    8000029e:	8082                	ret
    800002a0:	00184503          	lbu	a0,1(a6)
    800002a4:	d971                	beqz	a0,80000278 <libmin_getopt+0x42>
    800002a6:	00c51863          	bne	a0,a2,800002b6 <libmin_getopt+0x80>
    800002aa:	00284603          	lbu	a2,2(a6)
    800002ae:	e601                	bnez	a2,800002b6 <libmin_getopt+0x80>
    800002b0:	2705                	addw	a4,a4,1
    800002b2:	c298                	sw	a4,0(a3)
    800002b4:	b7d1                	j	80000278 <libmin_getopt+0x42>
    800002b6:	00007897          	auipc	a7,0x7
    800002ba:	0f288893          	add	a7,a7,242 # 800073a8 <optreset>
    800002be:	0048a603          	lw	a2,4(a7)
    800002c2:	e601                	bnez	a2,800002ca <libmin_getopt+0x94>
    800002c4:	4605                	li	a2,1
    800002c6:	00c8a223          	sw	a2,4(a7)
    800002ca:	0048a303          	lw	t1,4(a7)
    800002ce:	00680633          	add	a2,a6,t1
    800002d2:	00064503          	lbu	a0,0(a2)
    800002d6:	00130e9b          	addw	t4,t1,1
    800002da:	01d8a223          	sw	t4,4(a7)
    800002de:	00a8a823          	sw	a0,16(a7)
    800002e2:	9876                	add	a6,a6,t4
    800002e4:	00084803          	lbu	a6,0(a6)
    800002e8:	00081863          	bnez	a6,800002f8 <libmin_getopt+0xc2>
    800002ec:	2705                	addw	a4,a4,1
    800002ee:	c298                	sw	a4,0(a3)
    800002f0:	00007717          	auipc	a4,0x7
    800002f4:	0a072e23          	sw	zero,188(a4) # 800073ac <optpos>
    800002f8:	0007c703          	lbu	a4,0(a5)
    800002fc:	fd57071b          	addw	a4,a4,-43
    80000300:	0fd77713          	and	a4,a4,253
    80000304:	e311                	bnez	a4,80000308 <libmin_getopt+0xd2>
    80000306:	0785                	add	a5,a5,1
    80000308:	883e                	mv	a6,a5
    8000030a:	00084303          	lbu	t1,0(a6)
    8000030e:	8742                	mv	a4,a6
    80000310:	0805                	add	a6,a6,1
    80000312:	fe651ce3          	bne	a0,t1,8000030a <libmin_getopt+0xd4>
    80000316:	9f1d                	subw	a4,a4,a5
    80000318:	2705                	addw	a4,a4,1
    8000031a:	00e78833          	add	a6,a5,a4
    8000031e:	00084803          	lbu	a6,0(a6)
    80000322:	03a00313          	li	t1,58
    80000326:	08681063          	bne	a6,t1,800003a6 <libmin_getopt+0x170>
    8000032a:	0705                	add	a4,a4,1
    8000032c:	973e                	add	a4,a4,a5
    8000032e:	00074303          	lbu	t1,0(a4)
    80000332:	03031d63          	bne	t1,a6,8000036c <libmin_getopt+0x136>
    80000336:	00007797          	auipc	a5,0x7
    8000033a:	0607bd23          	sd	zero,122(a5) # 800073b0 <optarg>
    8000033e:	00074703          	lbu	a4,0(a4)
    80000342:	0048a783          	lw	a5,4(a7)
    80000346:	04670e63          	beq	a4,t1,800003a2 <libmin_getopt+0x16c>
    8000034a:	429c                	lw	a5,0(a3)
    8000034c:	0017871b          	addw	a4,a5,1
    80000350:	078e                	sll	a5,a5,0x3
    80000352:	95be                	add	a1,a1,a5
    80000354:	619c                	ld	a5,0(a1)
    80000356:	c298                	sw	a4,0(a3)
    80000358:	0048a703          	lw	a4,4(a7)
    8000035c:	97ba                	add	a5,a5,a4
    8000035e:	00f8b423          	sd	a5,8(a7)
    80000362:	00007797          	auipc	a5,0x7
    80000366:	0407a523          	sw	zero,74(a5) # 800073ac <optpos>
    8000036a:	8082                	ret
    8000036c:	4298                	lw	a4,0(a3)
    8000036e:	fdc74ee3          	blt	a4,t3,8000034a <libmin_getopt+0x114>
    80000372:	0007c783          	lbu	a5,0(a5)
    80000376:	03a00513          	li	a0,58
    8000037a:	03078663          	beq	a5,a6,800003a6 <libmin_getopt+0x170>
    8000037e:	42dc                	lw	a5,4(a3)
    80000380:	03f00513          	li	a0,63
    80000384:	c38d                	beqz	a5,800003a6 <libmin_getopt+0x170>
    80000386:	618c                	ld	a1,0(a1)
    80000388:	1141                	add	sp,sp,-16
    8000038a:	00006517          	auipc	a0,0x6
    8000038e:	60650513          	add	a0,a0,1542 # 80006990 <__clz_tab+0x2a8>
    80000392:	e406                	sd	ra,8(sp)
    80000394:	3cb000ef          	jal	80000f5e <libmin_printf>
    80000398:	60a2                	ld	ra,8(sp)
    8000039a:	03f00513          	li	a0,63
    8000039e:	0141                	add	sp,sp,16
    800003a0:	8082                	ret
    800003a2:	f7c5                	bnez	a5,8000034a <libmin_getopt+0x114>
    800003a4:	8082                	ret
    800003a6:	8082                	ret

00000000800003a8 <libmin_memcpy>:
    800003a8:	4781                	li	a5,0
    800003aa:	00f61363          	bne	a2,a5,800003b0 <libmin_memcpy+0x8>
    800003ae:	8082                	ret
    800003b0:	00f58733          	add	a4,a1,a5
    800003b4:	00074683          	lbu	a3,0(a4)
    800003b8:	00f50733          	add	a4,a0,a5
    800003bc:	0785                	add	a5,a5,1
    800003be:	00d70023          	sb	a3,0(a4)
    800003c2:	b7e5                	j	800003aa <libmin_memcpy+0x2>

00000000800003c4 <libmin_memset>:
    800003c4:	ca39                	beqz	a2,8000041a <libmin_memset+0x56>
    800003c6:	0ff5f593          	zext.b	a1,a1
    800003ca:	00c507b3          	add	a5,a0,a2
    800003ce:	feb78fa3          	sb	a1,-1(a5)
    800003d2:	00b50023          	sb	a1,0(a0)
    800003d6:	4709                	li	a4,2
    800003d8:	04c77163          	bgeu	a4,a2,8000041a <libmin_memset+0x56>
    800003dc:	feb78f23          	sb	a1,-2(a5)
    800003e0:	00b500a3          	sb	a1,1(a0)
    800003e4:	feb78ea3          	sb	a1,-3(a5)
    800003e8:	00b50123          	sb	a1,2(a0)
    800003ec:	4719                	li	a4,6
    800003ee:	02c77663          	bgeu	a4,a2,8000041a <libmin_memset+0x56>
    800003f2:	feb78e23          	sb	a1,-4(a5)
    800003f6:	00b501a3          	sb	a1,3(a0)
    800003fa:	47a1                	li	a5,8
    800003fc:	00c7ff63          	bgeu	a5,a2,8000041a <libmin_memset+0x56>
    80000400:	40a00733          	neg	a4,a0
    80000404:	8b0d                	and	a4,a4,3
    80000406:	8e19                	sub	a2,a2,a4
    80000408:	00e507b3          	add	a5,a0,a4
    8000040c:	9a71                	and	a2,a2,-4
    8000040e:	963e                	add	a2,a2,a5
    80000410:	00b78023          	sb	a1,0(a5)
    80000414:	0785                	add	a5,a5,1
    80000416:	fef61de3          	bne	a2,a5,80000410 <libmin_memset+0x4c>
    8000041a:	8082                	ret

000000008000041c <dopr_outch>:
    8000041c:	619c                	ld	a5,0(a1)
    8000041e:	00c7f563          	bgeu	a5,a2,80000428 <dopr_outch+0xc>
    80000422:	953e                	add	a0,a0,a5
    80000424:	00d50023          	sb	a3,0(a0)
    80000428:	619c                	ld	a5,0(a1)
    8000042a:	0785                	add	a5,a5,1
    8000042c:	e19c                	sd	a5,0(a1)
    8000042e:	8082                	ret

0000000080000430 <fmtint>:
    80000430:	7159                	add	sp,sp,-112
    80000432:	e4ce                	sd	s3,72(sp)
    80000434:	e0d2                	sd	s4,64(sp)
    80000436:	fc56                	sd	s5,56(sp)
    80000438:	f486                	sd	ra,104(sp)
    8000043a:	f0a2                	sd	s0,96(sp)
    8000043c:	eca6                	sd	s1,88(sp)
    8000043e:	e8ca                	sd	s2,80(sp)
    80000440:	f85a                	sd	s6,48(sp)
    80000442:	f45e                	sd	s7,40(sp)
    80000444:	f062                	sd	s8,32(sp)
    80000446:	8ab2                	mv	s5,a2
    80000448:	89aa                	mv	s3,a0
    8000044a:	8a2e                	mv	s4,a1
    8000044c:	4601                	li	a2,0
    8000044e:	00084463          	bltz	a6,80000456 <fmtint+0x26>
    80000452:	0008061b          	sext.w	a2,a6
    80000456:	0408f593          	and	a1,a7,64
    8000045a:	4b81                	li	s7,0
    8000045c:	e599                	bnez	a1,8000046a <fmtint+0x3a>
    8000045e:	0c06da63          	bgez	a3,80000532 <fmtint+0x102>
    80000462:	40d006b3          	neg	a3,a3
    80000466:	02d00b93          	li	s7,45
    8000046a:	4058d59b          	sraw	a1,a7,0x5
    8000046e:	8985                	and	a1,a1,1
    80000470:	00006317          	auipc	t1,0x6
    80000474:	55830313          	add	t1,t1,1368 # 800069c8 <__clz_tab+0x2e0>
    80000478:	c589                	beqz	a1,80000482 <fmtint+0x52>
    8000047a:	00006317          	auipc	t1,0x6
    8000047e:	53630313          	add	t1,t1,1334 # 800069b0 <__clz_tab+0x2c8>
    80000482:	0028                	add	a0,sp,8
    80000484:	4581                	li	a1,0
    80000486:	8b2a                	mv	s6,a0
    80000488:	4e51                	li	t3,20
    8000048a:	02e6f833          	remu	a6,a3,a4
    8000048e:	84ae                	mv	s1,a1
    80000490:	2585                	addw	a1,a1,1
    80000492:	981a                	add	a6,a6,t1
    80000494:	00084803          	lbu	a6,0(a6)
    80000498:	01050023          	sb	a6,0(a0)
    8000049c:	8836                	mv	a6,a3
    8000049e:	02e6d6b3          	divu	a3,a3,a4
    800004a2:	0ae86263          	bltu	a6,a4,80000546 <fmtint+0x116>
    800004a6:	0505                	add	a0,a0,1
    800004a8:	ffc591e3          	bne	a1,t3,8000048a <fmtint+0x5a>
    800004ac:	44cd                	li	s1,19
    800004ae:	02048713          	add	a4,s1,32
    800004b2:	970a                	add	a4,a4,sp
    800004b4:	4096093b          	subw	s2,a2,s1
    800004b8:	fe070423          	sb	zero,-24(a4)
    800004bc:	02091713          	sll	a4,s2,0x20
    800004c0:	00075363          	bgez	a4,800004c6 <fmtint+0x96>
    800004c4:	4901                	li	s2,0
    800004c6:	8726                	mv	a4,s1
    800004c8:	00c4d363          	bge	s1,a2,800004ce <fmtint+0x9e>
    800004cc:	8732                	mv	a4,a2
    800004ce:	40e7843b          	subw	s0,a5,a4
    800004d2:	017037b3          	snez	a5,s7
    800004d6:	9c1d                	subw	s0,s0,a5
    800004d8:	02041793          	sll	a5,s0,0x20
    800004dc:	0007d363          	bgez	a5,800004e2 <fmtint+0xb2>
    800004e0:	4401                	li	s0,0
    800004e2:	0108f793          	and	a5,a7,16
    800004e6:	cb81                	beqz	a5,800004f6 <fmtint+0xc6>
    800004e8:	87ca                	mv	a5,s2
    800004ea:	00895363          	bge	s2,s0,800004f0 <fmtint+0xc0>
    800004ee:	87a2                	mv	a5,s0
    800004f0:	0007891b          	sext.w	s2,a5
    800004f4:	4401                	li	s0,0
    800004f6:	0018f893          	and	a7,a7,1
    800004fa:	06088663          	beqz	a7,80000566 <fmtint+0x136>
    800004fe:	4080043b          	negw	s0,s0
    80000502:	87a2                	mv	a5,s0
    80000504:	00045363          	bgez	s0,8000050a <fmtint+0xda>
    80000508:	4781                	li	a5,0
    8000050a:	9c1d                	subw	s0,s0,a5
    8000050c:	000b8863          	beqz	s7,8000051c <fmtint+0xec>
    80000510:	86de                	mv	a3,s7
    80000512:	8656                	mv	a2,s5
    80000514:	85d2                	mv	a1,s4
    80000516:	854e                	mv	a0,s3
    80000518:	f05ff0ef          	jal	8000041c <dopr_outch>
    8000051c:	08090263          	beqz	s2,800005a0 <fmtint+0x170>
    80000520:	03000693          	li	a3,48
    80000524:	8656                	mv	a2,s5
    80000526:	85d2                	mv	a1,s4
    80000528:	854e                	mv	a0,s3
    8000052a:	ef3ff0ef          	jal	8000041c <dopr_outch>
    8000052e:	397d                	addw	s2,s2,-1
    80000530:	b7f5                	j	8000051c <fmtint+0xec>
    80000532:	0028f593          	and	a1,a7,2
    80000536:	02b00b93          	li	s7,43
    8000053a:	f985                	bnez	a1,8000046a <fmtint+0x3a>
    8000053c:	00389b93          	sll	s7,a7,0x3
    80000540:	020bfb93          	and	s7,s7,32
    80000544:	b71d                	j	8000046a <fmtint+0x3a>
    80000546:	4751                	li	a4,20
    80000548:	f6e583e3          	beq	a1,a4,800004ae <fmtint+0x7e>
    8000054c:	84ae                	mv	s1,a1
    8000054e:	b785                	j	800004ae <fmtint+0x7e>
    80000550:	02000693          	li	a3,32
    80000554:	8656                	mv	a2,s5
    80000556:	85d2                	mv	a1,s4
    80000558:	854e                	mv	a0,s3
    8000055a:	ec3ff0ef          	jal	8000041c <dopr_outch>
    8000055e:	3c7d                	addw	s8,s8,-1
    80000560:	fe0c18e3          	bnez	s8,80000550 <fmtint+0x120>
    80000564:	bf79                	j	80000502 <fmtint+0xd2>
    80000566:	8c22                	mv	s8,s0
    80000568:	bfe5                	j	80000560 <fmtint+0x130>
    8000056a:	009b07b3          	add	a5,s6,s1
    8000056e:	0007c683          	lbu	a3,0(a5)
    80000572:	8656                	mv	a2,s5
    80000574:	85d2                	mv	a1,s4
    80000576:	854e                	mv	a0,s3
    80000578:	ea5ff0ef          	jal	8000041c <dopr_outch>
    8000057c:	14fd                	add	s1,s1,-1
    8000057e:	0004879b          	sext.w	a5,s1
    80000582:	ff2794e3          	bne	a5,s2,8000056a <fmtint+0x13a>
    80000586:	ec19                	bnez	s0,800005a4 <fmtint+0x174>
    80000588:	70a6                	ld	ra,104(sp)
    8000058a:	7406                	ld	s0,96(sp)
    8000058c:	64e6                	ld	s1,88(sp)
    8000058e:	6946                	ld	s2,80(sp)
    80000590:	69a6                	ld	s3,72(sp)
    80000592:	6a06                	ld	s4,64(sp)
    80000594:	7ae2                	ld	s5,56(sp)
    80000596:	7b42                	ld	s6,48(sp)
    80000598:	7ba2                	ld	s7,40(sp)
    8000059a:	7c02                	ld	s8,32(sp)
    8000059c:	6165                	add	sp,sp,112
    8000059e:	8082                	ret
    800005a0:	597d                	li	s2,-1
    800005a2:	bfe9                	j	8000057c <fmtint+0x14c>
    800005a4:	02000693          	li	a3,32
    800005a8:	8656                	mv	a2,s5
    800005aa:	85d2                	mv	a1,s4
    800005ac:	854e                	mv	a0,s3
    800005ae:	e6fff0ef          	jal	8000041c <dopr_outch>
    800005b2:	2405                	addw	s0,s0,1
    800005b4:	bfc9                	j	80000586 <fmtint+0x156>

00000000800005b6 <my_modf.isra.0>:
    800005b6:	7159                	add	sp,sp,-112
    800005b8:	f0a2                	sd	s0,96(sp)
    800005ba:	00006417          	auipc	s0,0x6
    800005be:	52e43403          	ld	s0,1326(s0) # 80006ae8 <__clz_tab+0x400>
    800005c2:	e8ca                	sd	s2,80(sp)
    800005c4:	e4ce                	sd	s3,72(sp)
    800005c6:	e0d2                	sd	s4,64(sp)
    800005c8:	fc56                	sd	s5,56(sp)
    800005ca:	f85a                	sd	s6,48(sp)
    800005cc:	f45e                	sd	s7,40(sp)
    800005ce:	f062                	sd	s8,32(sp)
    800005d0:	ec66                	sd	s9,24(sp)
    800005d2:	e86a                	sd	s10,16(sp)
    800005d4:	f486                	sd	ra,104(sp)
    800005d6:	eca6                	sd	s1,88(sp)
    800005d8:	8a2a                	mv	s4,a0
    800005da:	89ae                	mv	s3,a1
    800005dc:	892a                	mv	s2,a0
    800005de:	4a81                	li	s5,0
    800005e0:	8ca2                	mv	s9,s0
    800005e2:	8d22                	mv	s10,s0
    800005e4:	00006c17          	auipc	s8,0x6
    800005e8:	50cc3c03          	ld	s8,1292(s8) # 80006af0 <__clz_tab+0x408>
    800005ec:	00006b97          	auipc	s7,0x6
    800005f0:	50cbbb83          	ld	s7,1292(s7) # 80006af8 <__clz_tab+0x410>
    800005f4:	06400b13          	li	s6,100
    800005f8:	854a                	mv	a0,s2
    800005fa:	6d3010ef          	jal	800024cc <__fixdfdi>
    800005fe:	747010ef          	jal	80002544 <__floatdidf>
    80000602:	84aa                	mv	s1,a0
    80000604:	85e6                	mv	a1,s9
    80000606:	854a                	mv	a0,s2
    80000608:	078010ef          	jal	80001680 <__adddf3>
    8000060c:	85aa                	mv	a1,a0
    8000060e:	8526                	mv	a0,s1
    80000610:	608010ef          	jal	80001c18 <__ledf2>
    80000614:	00a04c63          	bgtz	a0,8000062c <my_modf.isra.0+0x76>
    80000618:	85ea                	mv	a1,s10
    8000061a:	854a                	mv	a0,s2
    8000061c:	1e9010ef          	jal	80002004 <__subdf3>
    80000620:	85aa                	mv	a1,a0
    80000622:	8526                	mv	a0,s1
    80000624:	548010ef          	jal	80001b6c <__gedf2>
    80000628:	02055763          	bgez	a0,80000656 <my_modf.isra.0+0xa0>
    8000062c:	85e2                	mv	a1,s8
    8000062e:	854a                	mv	a0,s2
    80000630:	694010ef          	jal	80001cc4 <__muldf3>
    80000634:	892a                	mv	s2,a0
    80000636:	85de                	mv	a1,s7
    80000638:	8522                	mv	a0,s0
    8000063a:	68a010ef          	jal	80001cc4 <__muldf3>
    8000063e:	2a85                	addw	s5,s5,1
    80000640:	842a                	mv	s0,a0
    80000642:	fb6a9be3          	bne	s5,s6,800005f8 <my_modf.isra.0+0x42>
    80000646:	00000793          	li	a5,0
    8000064a:	00f9b023          	sd	a5,0(s3)
    8000064e:	a805                	j	8000067e <my_modf.isra.0+0xc8>
    80000650:	0099b023          	sd	s1,0(s3)
    80000654:	a02d                	j	8000067e <my_modf.isra.0+0xc8>
    80000656:	fe0a8de3          	beqz	s5,80000650 <my_modf.isra.0+0x9a>
    8000065a:	85a2                	mv	a1,s0
    8000065c:	8526                	mv	a0,s1
    8000065e:	666010ef          	jal	80001cc4 <__muldf3>
    80000662:	85aa                	mv	a1,a0
    80000664:	842a                	mv	s0,a0
    80000666:	8552                	mv	a0,s4
    80000668:	19d010ef          	jal	80002004 <__subdf3>
    8000066c:	002c                	add	a1,sp,8
    8000066e:	f49ff0ef          	jal	800005b6 <my_modf.isra.0>
    80000672:	6522                	ld	a0,8(sp)
    80000674:	85a2                	mv	a1,s0
    80000676:	00a010ef          	jal	80001680 <__adddf3>
    8000067a:	00a9b023          	sd	a0,0(s3)
    8000067e:	70a6                	ld	ra,104(sp)
    80000680:	7406                	ld	s0,96(sp)
    80000682:	64e6                	ld	s1,88(sp)
    80000684:	6946                	ld	s2,80(sp)
    80000686:	69a6                	ld	s3,72(sp)
    80000688:	6a06                	ld	s4,64(sp)
    8000068a:	7ae2                	ld	s5,56(sp)
    8000068c:	7b42                	ld	s6,48(sp)
    8000068e:	7ba2                	ld	s7,40(sp)
    80000690:	7c02                	ld	s8,32(sp)
    80000692:	6ce2                	ld	s9,24(sp)
    80000694:	6d42                	ld	s10,16(sp)
    80000696:	6165                	add	sp,sp,112
    80000698:	8082                	ret

000000008000069a <fmtfp>:
    8000069a:	ce010113          	add	sp,sp,-800
    8000069e:	30813823          	sd	s0,784(sp)
    800006a2:	30913423          	sd	s1,776(sp)
    800006a6:	2f413823          	sd	s4,752(sp)
    800006aa:	2f613023          	sd	s6,736(sp)
    800006ae:	e42e                	sd	a1,8(sp)
    800006b0:	30113c23          	sd	ra,792(sp)
    800006b4:	31213023          	sd	s2,768(sp)
    800006b8:	2f313c23          	sd	s3,760(sp)
    800006bc:	2f513423          	sd	s5,744(sp)
    800006c0:	2d713c23          	sd	s7,728(sp)
    800006c4:	2d813823          	sd	s8,720(sp)
    800006c8:	2d913423          	sd	s9,712(sp)
    800006cc:	2da13023          	sd	s10,704(sp)
    800006d0:	2bb13c23          	sd	s11,696(sp)
    800006d4:	e02a                	sd	a0,0(sp)
    800006d6:	e832                	sd	a2,16(sp)
    800006d8:	8436                	mv	s0,a3
    800006da:	85ba                	mv	a1,a4
    800006dc:	84be                	mv	s1,a5
    800006de:	8a46                	mv	s4,a7
    800006e0:	4b19                	li	s6,6
    800006e2:	00084363          	bltz	a6,800006e8 <fmtfp+0x4e>
    800006e6:	8b42                	mv	s6,a6
    800006e8:	4601                	li	a2,0
    800006ea:	4681                	li	a3,0
    800006ec:	8522                	mv	a0,s0
    800006ee:	ec2e                	sd	a1,24(sp)
    800006f0:	02c020ef          	jal	8000271c <__letf2>
    800006f4:	65e2                	ld	a1,24(sp)
    800006f6:	02054063          	bltz	a0,80000716 <fmtfp+0x7c>
    800006fa:	8522                	mv	a0,s0
    800006fc:	1d0030ef          	jal	800038cc <__trunctfdf2>
    80000700:	002a7793          	and	a5,s4,2
    80000704:	842a                	mv	s0,a0
    80000706:	02b00913          	li	s2,43
    8000070a:	ef99                	bnez	a5,80000728 <fmtfp+0x8e>
    8000070c:	003a1913          	sll	s2,s4,0x3
    80000710:	02097913          	and	s2,s2,32
    80000714:	a811                	j	80000728 <fmtfp+0x8e>
    80000716:	57fd                	li	a5,-1
    80000718:	17fe                	sll	a5,a5,0x3f
    8000071a:	8522                	mv	a0,s0
    8000071c:	8dbd                	xor	a1,a1,a5
    8000071e:	1ae030ef          	jal	800038cc <__trunctfdf2>
    80000722:	842a                	mv	s0,a0
    80000724:	02d00913          	li	s2,45
    80000728:	47c1                	li	a5,16
    8000072a:	000b0a9b          	sext.w	s5,s6
    8000072e:	0167d363          	bge	a5,s6,80000734 <fmtfp+0x9a>
    80000732:	4ac1                	li	s5,16
    80000734:	181c                	add	a5,sp,48
    80000736:	00006997          	auipc	s3,0x6
    8000073a:	3da98993          	add	s3,s3,986 # 80006b10 <__clz_tab+0x428>
    8000073e:	85be                	mv	a1,a5
    80000740:	8522                	mv	a0,s0
    80000742:	f03e                	sd	a5,32(sp)
    80000744:	e73ff0ef          	jal	800005b6 <my_modf.isra.0>
    80000748:	0009bc03          	ld	s8,0(s3)
    8000074c:	0089bb83          	ld	s7,8(s3)
    80000750:	8cd6                	mv	s9,s5
    80000752:	00006d17          	auipc	s10,0x6
    80000756:	3ced0d13          	add	s10,s10,974 # 80006b20 <__clz_tab+0x438>
    8000075a:	220c9c63          	bnez	s9,80000992 <fmtfp+0x2f8>
    8000075e:	7cc2                	ld	s9,48(sp)
    80000760:	8522                	mv	a0,s0
    80000762:	85e6                	mv	a1,s9
    80000764:	0a1010ef          	jal	80002004 <__subdf3>
    80000768:	074030ef          	jal	800037dc <__extenddftf2>
    8000076c:	8662                	mv	a2,s8
    8000076e:	86de                	mv	a3,s7
    80000770:	080020ef          	jal	800027f0 <__multf3>
    80000774:	842e                	mv	s0,a1
    80000776:	8baa                	mv	s7,a0
    80000778:	6f1020ef          	jal	80003668 <__fixtfdi>
    8000077c:	8c2a                	mv	s8,a0
    8000077e:	78f020ef          	jal	8000370c <__floatditf>
    80000782:	862a                	mv	a2,a0
    80000784:	86ae                	mv	a3,a1
    80000786:	855e                	mv	a0,s7
    80000788:	85a2                	mv	a1,s0
    8000078a:	706020ef          	jal	80002e90 <__subtf3>
    8000078e:	00006797          	auipc	a5,0x6
    80000792:	3a278793          	add	a5,a5,930 # 80006b30 <__clz_tab+0x448>
    80000796:	6390                	ld	a2,0(a5)
    80000798:	6794                	ld	a3,8(a5)
    8000079a:	6af010ef          	jal	80002648 <__getf2>
    8000079e:	00054363          	bltz	a0,800007a4 <fmtfp+0x10a>
    800007a2:	0c05                	add	s8,s8,1
    800007a4:	8562                	mv	a0,s8
    800007a6:	59f010ef          	jal	80002544 <__floatdidf>
    800007aa:	fc2a                	sd	a0,56(sp)
    800007ac:	030030ef          	jal	800037dc <__extenddftf2>
    800007b0:	8c2a                	mv	s8,a0
    800007b2:	8bae                	mv	s7,a1
    800007b4:	0009b503          	ld	a0,0(s3)
    800007b8:	0089b583          	ld	a1,8(s3)
    800007bc:	8456                	mv	s0,s5
    800007be:	00006d17          	auipc	s10,0x6
    800007c2:	362d0d13          	add	s10,s10,866 # 80006b20 <__clz_tab+0x438>
    800007c6:	1e041263          	bnez	s0,800009aa <fmtfp+0x310>
    800007ca:	862a                	mv	a2,a0
    800007cc:	86ae                	mv	a3,a1
    800007ce:	8562                	mv	a0,s8
    800007d0:	85de                	mv	a1,s7
    800007d2:	677010ef          	jal	80002648 <__getf2>
    800007d6:	02054e63          	bltz	a0,80000812 <fmtfp+0x178>
    800007da:	00006597          	auipc	a1,0x6
    800007de:	30e5b583          	ld	a1,782(a1) # 80006ae8 <__clz_tab+0x400>
    800007e2:	8566                	mv	a0,s9
    800007e4:	69d000ef          	jal	80001680 <__adddf3>
    800007e8:	0089b583          	ld	a1,8(s3)
    800007ec:	f82a                	sd	a0,48(sp)
    800007ee:	8cd6                	mv	s9,s5
    800007f0:	0009b503          	ld	a0,0(s3)
    800007f4:	00006997          	auipc	s3,0x6
    800007f8:	32c98993          	add	s3,s3,812 # 80006b20 <__clz_tab+0x438>
    800007fc:	1a0c9f63          	bnez	s9,800009ba <fmtfp+0x320>
    80000800:	862a                	mv	a2,a0
    80000802:	86ae                	mv	a3,a1
    80000804:	8562                	mv	a0,s8
    80000806:	85de                	mv	a1,s7
    80000808:	688020ef          	jal	80002e90 <__subtf3>
    8000080c:	0c0030ef          	jal	800038cc <__trunctfdf2>
    80000810:	fc2a                	sd	a0,56(sp)
    80000812:	04010d93          	add	s11,sp,64
    80000816:	4b81                	li	s7,0
    80000818:	8d6e                	mv	s10,s11
    8000081a:	00006c17          	auipc	s8,0x6
    8000081e:	1aec0c13          	add	s8,s8,430 # 800069c8 <__clz_tab+0x2e0>
    80000822:	13700c93          	li	s9,311
    80000826:	00006797          	auipc	a5,0x6
    8000082a:	2ca78793          	add	a5,a5,714 # 80006af0 <__clz_tab+0x408>
    8000082e:	638c                	ld	a1,0(a5)
    80000830:	7542                	ld	a0,48(sp)
    80000832:	89de                	mv	s3,s7
    80000834:	2b85                	addw	s7,s7,1
    80000836:	48e010ef          	jal	80001cc4 <__muldf3>
    8000083a:	7582                	ld	a1,32(sp)
    8000083c:	f42a                	sd	a0,40(sp)
    8000083e:	d79ff0ef          	jal	800005b6 <my_modf.isra.0>
    80000842:	77c2                	ld	a5,48(sp)
    80000844:	7522                	ld	a0,40(sp)
    80000846:	85be                	mv	a1,a5
    80000848:	ec3e                	sd	a5,24(sp)
    8000084a:	7ba010ef          	jal	80002004 <__subdf3>
    8000084e:	00006797          	auipc	a5,0x6
    80000852:	2b278793          	add	a5,a5,690 # 80006b00 <__clz_tab+0x418>
    80000856:	638c                	ld	a1,0(a5)
    80000858:	629000ef          	jal	80001680 <__adddf3>
    8000085c:	00006797          	auipc	a5,0x6
    80000860:	29c78793          	add	a5,a5,668 # 80006af8 <__clz_tab+0x410>
    80000864:	638c                	ld	a1,0(a5)
    80000866:	45e010ef          	jal	80001cc4 <__muldf3>
    8000086a:	3ff010ef          	jal	80002468 <__fixdfsi>
    8000086e:	2501                	sext.w	a0,a0
    80000870:	9562                	add	a0,a0,s8
    80000872:	00054603          	lbu	a2,0(a0)
    80000876:	6562                	ld	a0,24(sp)
    80000878:	00000593          	li	a1,0
    8000087c:	00cd8023          	sb	a2,0(s11)
    80000880:	268010ef          	jal	80001ae8 <__eqdf2>
    80000884:	14050363          	beqz	a0,800009ca <fmtfp+0x330>
    80000888:	0d85                	add	s11,s11,1
    8000088a:	f99b9ee3          	bne	s7,s9,80000826 <fmtfp+0x18c>
    8000088e:	13600993          	li	s3,310
    80000892:	28098793          	add	a5,s3,640
    80000896:	1818                	add	a4,sp,48
    80000898:	7562                	ld	a0,56(sp)
    8000089a:	97ba                	add	a5,a5,a4
    8000089c:	d8078823          	sb	zero,-624(a5)
    800008a0:	00000593          	li	a1,0
    800008a4:	244010ef          	jal	80001ae8 <__eqdf2>
    800008a8:	cd2d                	beqz	a0,80000922 <fmtfp+0x288>
    800008aa:	183c                	add	a5,sp,56
    800008ac:	17810d93          	add	s11,sp,376
    800008b0:	4b81                	li	s7,0
    800008b2:	f43e                	sd	a5,40(sp)
    800008b4:	13700c93          	li	s9,311
    800008b8:	00006797          	auipc	a5,0x6
    800008bc:	23878793          	add	a5,a5,568 # 80006af0 <__clz_tab+0x408>
    800008c0:	638c                	ld	a1,0(a5)
    800008c2:	7562                	ld	a0,56(sp)
    800008c4:	845e                	mv	s0,s7
    800008c6:	2b85                	addw	s7,s7,1
    800008c8:	3fc010ef          	jal	80001cc4 <__muldf3>
    800008cc:	75a2                	ld	a1,40(sp)
    800008ce:	f02a                	sd	a0,32(sp)
    800008d0:	ce7ff0ef          	jal	800005b6 <my_modf.isra.0>
    800008d4:	77e2                	ld	a5,56(sp)
    800008d6:	7502                	ld	a0,32(sp)
    800008d8:	85be                	mv	a1,a5
    800008da:	ec3e                	sd	a5,24(sp)
    800008dc:	728010ef          	jal	80002004 <__subdf3>
    800008e0:	00006797          	auipc	a5,0x6
    800008e4:	22078793          	add	a5,a5,544 # 80006b00 <__clz_tab+0x418>
    800008e8:	638c                	ld	a1,0(a5)
    800008ea:	597000ef          	jal	80001680 <__adddf3>
    800008ee:	00006797          	auipc	a5,0x6
    800008f2:	20a78793          	add	a5,a5,522 # 80006af8 <__clz_tab+0x410>
    800008f6:	638c                	ld	a1,0(a5)
    800008f8:	3cc010ef          	jal	80001cc4 <__muldf3>
    800008fc:	36d010ef          	jal	80002468 <__fixdfsi>
    80000900:	2501                	sext.w	a0,a0
    80000902:	9562                	add	a0,a0,s8
    80000904:	00054603          	lbu	a2,0(a0)
    80000908:	6562                	ld	a0,24(sp)
    8000090a:	00000593          	li	a1,0
    8000090e:	00cd8023          	sb	a2,0(s11)
    80000912:	1d6010ef          	jal	80001ae8 <__eqdf2>
    80000916:	c161                	beqz	a0,800009d6 <fmtfp+0x33c>
    80000918:	0d85                	add	s11,s11,1
    8000091a:	f99b9fe3          	bne	s7,s9,800008b8 <fmtfp+0x21e>
    8000091e:	13600413          	li	s0,310
    80000922:	28040793          	add	a5,s0,640
    80000926:	1818                	add	a4,sp,48
    80000928:	97ba                	add	a5,a5,a4
    8000092a:	408a8bbb          	subw	s7,s5,s0
    8000092e:	ec078423          	sb	zero,-312(a5)
    80000932:	020b9793          	sll	a5,s7,0x20
    80000936:	0007d363          	bgez	a5,8000093c <fmtfp+0x2a2>
    8000093a:	4b81                	li	s7,0
    8000093c:	413484bb          	subw	s1,s1,s3
    80000940:	415484bb          	subw	s1,s1,s5
    80000944:	012037b3          	snez	a5,s2
    80000948:	34fd                	addw	s1,s1,-1
    8000094a:	9c9d                	subw	s1,s1,a5
    8000094c:	02049793          	sll	a5,s1,0x20
    80000950:	0007d363          	bgez	a5,80000956 <fmtfp+0x2bc>
    80000954:	4481                	li	s1,0
    80000956:	001a7793          	and	a5,s4,1
    8000095a:	00048a9b          	sext.w	s5,s1
    8000095e:	c399                	beqz	a5,80000964 <fmtfp+0x2ca>
    80000960:	40900abb          	negw	s5,s1
    80000964:	010a7a13          	and	s4,s4,16
    80000968:	060a1d63          	bnez	s4,800009e2 <fmtfp+0x348>
    8000096c:	84d6                	mv	s1,s5
    8000096e:	0a904563          	bgtz	s1,80000a18 <fmtfp+0x37e>
    80000972:	87d6                	mv	a5,s5
    80000974:	0a0ac063          	bltz	s5,80000a14 <fmtfp+0x37a>
    80000978:	40fa8abb          	subw	s5,s5,a5
    8000097c:	00090963          	beqz	s2,8000098e <fmtfp+0x2f4>
    80000980:	6642                	ld	a2,16(sp)
    80000982:	65a2                	ld	a1,8(sp)
    80000984:	6502                	ld	a0,0(sp)
    80000986:	0ff97693          	zext.b	a3,s2
    8000098a:	a93ff0ef          	jal	8000041c <dopr_outch>
    8000098e:	54fd                	li	s1,-1
    80000990:	a075                	j	80000a3c <fmtfp+0x3a2>
    80000992:	000d3603          	ld	a2,0(s10)
    80000996:	008d3683          	ld	a3,8(s10)
    8000099a:	8562                	mv	a0,s8
    8000099c:	85de                	mv	a1,s7
    8000099e:	653010ef          	jal	800027f0 <__multf3>
    800009a2:	8c2a                	mv	s8,a0
    800009a4:	8bae                	mv	s7,a1
    800009a6:	3cfd                	addw	s9,s9,-1
    800009a8:	bb4d                	j	8000075a <fmtfp+0xc0>
    800009aa:	000d3603          	ld	a2,0(s10)
    800009ae:	008d3683          	ld	a3,8(s10)
    800009b2:	347d                	addw	s0,s0,-1
    800009b4:	63d010ef          	jal	800027f0 <__multf3>
    800009b8:	b539                	j	800007c6 <fmtfp+0x12c>
    800009ba:	0009b603          	ld	a2,0(s3)
    800009be:	0089b683          	ld	a3,8(s3)
    800009c2:	3cfd                	addw	s9,s9,-1
    800009c4:	62d010ef          	jal	800027f0 <__multf3>
    800009c8:	bd15                	j	800007fc <fmtfp+0x162>
    800009ca:	13700713          	li	a4,311
    800009ce:	eceb82e3          	beq	s7,a4,80000892 <fmtfp+0x1f8>
    800009d2:	89de                	mv	s3,s7
    800009d4:	bd7d                	j	80000892 <fmtfp+0x1f8>
    800009d6:	13700713          	li	a4,311
    800009da:	f4eb84e3          	beq	s7,a4,80000922 <fmtfp+0x288>
    800009de:	845e                	mv	s0,s7
    800009e0:	b789                	j	80000922 <fmtfp+0x288>
    800009e2:	f95055e3          	blez	s5,8000096c <fmtfp+0x2d2>
    800009e6:	00090a63          	beqz	s2,800009fa <fmtfp+0x360>
    800009ea:	6642                	ld	a2,16(sp)
    800009ec:	65a2                	ld	a1,8(sp)
    800009ee:	6502                	ld	a0,0(sp)
    800009f0:	0ff97693          	zext.b	a3,s2
    800009f4:	3afd                	addw	s5,s5,-1
    800009f6:	a27ff0ef          	jal	8000041c <dopr_outch>
    800009fa:	8956                	mv	s2,s5
    800009fc:	a809                	j	80000a0e <fmtfp+0x374>
    800009fe:	6642                	ld	a2,16(sp)
    80000a00:	65a2                	ld	a1,8(sp)
    80000a02:	6502                	ld	a0,0(sp)
    80000a04:	03000693          	li	a3,48
    80000a08:	397d                	addw	s2,s2,-1
    80000a0a:	a13ff0ef          	jal	8000041c <dopr_outch>
    80000a0e:	fe0918e3          	bnez	s2,800009fe <fmtfp+0x364>
    80000a12:	4a81                	li	s5,0
    80000a14:	4781                	li	a5,0
    80000a16:	b78d                	j	80000978 <fmtfp+0x2de>
    80000a18:	6642                	ld	a2,16(sp)
    80000a1a:	65a2                	ld	a1,8(sp)
    80000a1c:	6502                	ld	a0,0(sp)
    80000a1e:	02000693          	li	a3,32
    80000a22:	34fd                	addw	s1,s1,-1
    80000a24:	9f9ff0ef          	jal	8000041c <dopr_outch>
    80000a28:	b799                	j	8000096e <fmtfp+0x2d4>
    80000a2a:	013d07b3          	add	a5,s10,s3
    80000a2e:	0007c683          	lbu	a3,0(a5)
    80000a32:	6642                	ld	a2,16(sp)
    80000a34:	65a2                	ld	a1,8(sp)
    80000a36:	6502                	ld	a0,0(sp)
    80000a38:	9e5ff0ef          	jal	8000041c <dopr_outch>
    80000a3c:	19fd                	add	s3,s3,-1
    80000a3e:	0009879b          	sext.w	a5,s3
    80000a42:	fe9794e3          	bne	a5,s1,80000a2a <fmtfp+0x390>
    80000a46:	020b0163          	beqz	s6,80000a68 <fmtfp+0x3ce>
    80000a4a:	6642                	ld	a2,16(sp)
    80000a4c:	65a2                	ld	a1,8(sp)
    80000a4e:	6502                	ld	a0,0(sp)
    80000a50:	02e00693          	li	a3,46
    80000a54:	54fd                	li	s1,-1
    80000a56:	9c7ff0ef          	jal	8000041c <dopr_outch>
    80000a5a:	17810913          	add	s2,sp,376
    80000a5e:	147d                	add	s0,s0,-1
    80000a60:	0004079b          	sext.w	a5,s0
    80000a64:	04979363          	bne	a5,s1,80000aaa <fmtfp+0x410>
    80000a68:	040b9b63          	bnez	s7,80000abe <fmtfp+0x424>
    80000a6c:	060a9263          	bnez	s5,80000ad0 <fmtfp+0x436>
    80000a70:	31813083          	ld	ra,792(sp)
    80000a74:	31013403          	ld	s0,784(sp)
    80000a78:	30813483          	ld	s1,776(sp)
    80000a7c:	30013903          	ld	s2,768(sp)
    80000a80:	2f813983          	ld	s3,760(sp)
    80000a84:	2f013a03          	ld	s4,752(sp)
    80000a88:	2e813a83          	ld	s5,744(sp)
    80000a8c:	2e013b03          	ld	s6,736(sp)
    80000a90:	2d813b83          	ld	s7,728(sp)
    80000a94:	2d013c03          	ld	s8,720(sp)
    80000a98:	2c813c83          	ld	s9,712(sp)
    80000a9c:	2c013d03          	ld	s10,704(sp)
    80000aa0:	2b813d83          	ld	s11,696(sp)
    80000aa4:	32010113          	add	sp,sp,800
    80000aa8:	8082                	ret
    80000aaa:	008907b3          	add	a5,s2,s0
    80000aae:	0007c683          	lbu	a3,0(a5)
    80000ab2:	6642                	ld	a2,16(sp)
    80000ab4:	65a2                	ld	a1,8(sp)
    80000ab6:	6502                	ld	a0,0(sp)
    80000ab8:	965ff0ef          	jal	8000041c <dopr_outch>
    80000abc:	b74d                	j	80000a5e <fmtfp+0x3c4>
    80000abe:	6642                	ld	a2,16(sp)
    80000ac0:	65a2                	ld	a1,8(sp)
    80000ac2:	6502                	ld	a0,0(sp)
    80000ac4:	03000693          	li	a3,48
    80000ac8:	3bfd                	addw	s7,s7,-1
    80000aca:	953ff0ef          	jal	8000041c <dopr_outch>
    80000ace:	bf69                	j	80000a68 <fmtfp+0x3ce>
    80000ad0:	6642                	ld	a2,16(sp)
    80000ad2:	65a2                	ld	a1,8(sp)
    80000ad4:	6502                	ld	a0,0(sp)
    80000ad6:	02000693          	li	a3,32
    80000ada:	2a85                	addw	s5,s5,1
    80000adc:	941ff0ef          	jal	8000041c <dopr_outch>
    80000ae0:	b771                	j	80000a6c <fmtfp+0x3d2>

0000000080000ae2 <dopr>:
    80000ae2:	7135                	add	sp,sp,-160
    80000ae4:	e922                	sd	s0,144(sp)
    80000ae6:	e526                	sd	s1,136(sp)
    80000ae8:	e14a                	sd	s2,128(sp)
    80000aea:	fcce                	sd	s3,120(sp)
    80000aec:	f8d2                	sd	s4,112(sp)
    80000aee:	f4d6                	sd	s5,104(sp)
    80000af0:	ecde                	sd	s7,88(sp)
    80000af2:	e0ea                	sd	s10,64(sp)
    80000af4:	fc6e                	sd	s11,56(sp)
    80000af6:	ed06                	sd	ra,152(sp)
    80000af8:	f0da                	sd	s6,96(sp)
    80000afa:	e8e2                	sd	s8,80(sp)
    80000afc:	e4e6                	sd	s9,72(sp)
    80000afe:	8436                	mv	s0,a3
    80000b00:	00160d13          	add	s10,a2,1
    80000b04:	00064683          	lbu	a3,0(a2)
    80000b08:	1030                	add	a2,sp,40
    80000b0a:	84aa                	mv	s1,a0
    80000b0c:	892e                	mv	s2,a1
    80000b0e:	f402                	sd	zero,40(sp)
    80000b10:	4d81                	li	s11,0
    80000b12:	4881                	li	a7,0
    80000b14:	4701                	li	a4,0
    80000b16:	587d                	li	a6,-1
    80000b18:	4781                	li	a5,0
    80000b1a:	02500b93          	li	s7,37
    80000b1e:	e032                	sd	a2,0(sp)
    80000b20:	00006997          	auipc	s3,0x6
    80000b24:	b2898993          	add	s3,s3,-1240 # 80006648 <data_table+0x2438>
    80000b28:	00006a17          	auipc	s4,0x6
    80000b2c:	b38a0a13          	add	s4,s4,-1224 # 80006660 <data_table+0x2450>
    80000b30:	00006a97          	auipc	s5,0x6
    80000b34:	2d0aba83          	ld	s5,720(s5) # 80006e00 <_GLOBAL_OFFSET_TABLE_+0x38>
    80000b38:	c285                	beqz	a3,80000b58 <dopr+0x76>
    80000b3a:	fff7061b          	addw	a2,a4,-1
    80000b3e:	0006059b          	sext.w	a1,a2
    80000b42:	4515                	li	a0,5
    80000b44:	02b56c63          	bltu	a0,a1,80000b7c <dopr+0x9a>
    80000b48:	02061593          	sll	a1,a2,0x20
    80000b4c:	01e5d613          	srl	a2,a1,0x1e
    80000b50:	964e                	add	a2,a2,s3
    80000b52:	4210                	lw	a2,0(a2)
    80000b54:	964e                	add	a2,a2,s3
    80000b56:	8602                	jr	a2
    80000b58:	7522                	ld	a0,40(sp)
    80000b5a:	3e091963          	bnez	s2,80000f4c <dopr+0x46a>
    80000b5e:	60ea                	ld	ra,152(sp)
    80000b60:	644a                	ld	s0,144(sp)
    80000b62:	64aa                	ld	s1,136(sp)
    80000b64:	690a                	ld	s2,128(sp)
    80000b66:	79e6                	ld	s3,120(sp)
    80000b68:	7a46                	ld	s4,112(sp)
    80000b6a:	7aa6                	ld	s5,104(sp)
    80000b6c:	7b06                	ld	s6,96(sp)
    80000b6e:	6be6                	ld	s7,88(sp)
    80000b70:	6c46                	ld	s8,80(sp)
    80000b72:	6ca6                	ld	s9,72(sp)
    80000b74:	6d06                	ld	s10,64(sp)
    80000b76:	7de2                	ld	s11,56(sp)
    80000b78:	610d                	add	sp,sp,160
    80000b7a:	8082                	ret
    80000b7c:	4705                	li	a4,1
    80000b7e:	01768e63          	beq	a3,s7,80000b9a <dopr+0xb8>
    80000b82:	6582                	ld	a1,0(sp)
    80000b84:	864a                	mv	a2,s2
    80000b86:	8526                	mv	a0,s1
    80000b88:	ec3e                	sd	a5,24(sp)
    80000b8a:	e842                	sd	a6,16(sp)
    80000b8c:	e446                	sd	a7,8(sp)
    80000b8e:	88fff0ef          	jal	8000041c <dopr_outch>
    80000b92:	67e2                	ld	a5,24(sp)
    80000b94:	6842                	ld	a6,16(sp)
    80000b96:	68a2                	ld	a7,8(sp)
    80000b98:	4701                	li	a4,0
    80000b9a:	000d4683          	lbu	a3,0(s10)
    80000b9e:	0d05                	add	s10,s10,1
    80000ba0:	bf61                	j	80000b38 <dopr+0x56>
    80000ba2:	02b00613          	li	a2,43
    80000ba6:	02c68c63          	beq	a3,a2,80000bde <dopr+0xfc>
    80000baa:	00d66c63          	bltu	a2,a3,80000bc2 <dopr+0xe0>
    80000bae:	02000613          	li	a2,32
    80000bb2:	02c68963          	beq	a3,a2,80000be4 <dopr+0x102>
    80000bb6:	02300613          	li	a2,35
    80000bba:	02c68863          	beq	a3,a2,80000bea <dopr+0x108>
    80000bbe:	4709                	li	a4,2
    80000bc0:	bfa5                	j	80000b38 <dopr+0x56>
    80000bc2:	02d00613          	li	a2,45
    80000bc6:	00c68963          	beq	a3,a2,80000bd8 <dopr+0xf6>
    80000bca:	03000613          	li	a2,48
    80000bce:	fec698e3          	bne	a3,a2,80000bbe <dopr+0xdc>
    80000bd2:	0108e893          	or	a7,a7,16
    80000bd6:	b7d1                	j	80000b9a <dopr+0xb8>
    80000bd8:	0018e893          	or	a7,a7,1
    80000bdc:	bf7d                	j	80000b9a <dopr+0xb8>
    80000bde:	0028e893          	or	a7,a7,2
    80000be2:	bf65                	j	80000b9a <dopr+0xb8>
    80000be4:	0048e893          	or	a7,a7,4
    80000be8:	bf4d                	j	80000b9a <dopr+0xb8>
    80000bea:	0088e893          	or	a7,a7,8
    80000bee:	b775                	j	80000b9a <dopr+0xb8>
    80000bf0:	000ab603          	ld	a2,0(s5)
    80000bf4:	00169593          	sll	a1,a3,0x1
    80000bf8:	962e                	add	a2,a2,a1
    80000bfa:	00065603          	lhu	a2,0(a2)
    80000bfe:	8a11                	and	a2,a2,4
    80000c00:	ca09                	beqz	a2,80000c12 <dopr+0x130>
    80000c02:	4629                	li	a2,10
    80000c04:	02f6063b          	mulw	a2,a2,a5
    80000c08:	fd06869b          	addw	a3,a3,-48
    80000c0c:	00c687bb          	addw	a5,a3,a2
    80000c10:	b769                	j	80000b9a <dopr+0xb8>
    80000c12:	02a00613          	li	a2,42
    80000c16:	470d                	li	a4,3
    80000c18:	f2c690e3          	bne	a3,a2,80000b38 <dopr+0x56>
    80000c1c:	401c                	lw	a5,0(s0)
    80000c1e:	000d4683          	lbu	a3,0(s10)
    80000c22:	0421                	add	s0,s0,8
    80000c24:	bfad                	j	80000b9e <dopr+0xbc>
    80000c26:	02e00613          	li	a2,46
    80000c2a:	4715                	li	a4,5
    80000c2c:	f0c696e3          	bne	a3,a2,80000b38 <dopr+0x56>
    80000c30:	000d4683          	lbu	a3,0(s10)
    80000c34:	4711                	li	a4,4
    80000c36:	0d05                	add	s10,s10,1
    80000c38:	b701                	j	80000b38 <dopr+0x56>
    80000c3a:	000ab603          	ld	a2,0(s5)
    80000c3e:	00169593          	sll	a1,a3,0x1
    80000c42:	962e                	add	a2,a2,a1
    80000c44:	00065603          	lhu	a2,0(a2)
    80000c48:	8a11                	and	a2,a2,4
    80000c4a:	ce09                	beqz	a2,80000c64 <dopr+0x182>
    80000c4c:	8642                	mv	a2,a6
    80000c4e:	00085363          	bgez	a6,80000c54 <dopr+0x172>
    80000c52:	4601                	li	a2,0
    80000c54:	45a9                	li	a1,10
    80000c56:	02b6063b          	mulw	a2,a2,a1
    80000c5a:	fd06869b          	addw	a3,a3,-48
    80000c5e:	00c6883b          	addw	a6,a3,a2
    80000c62:	bf25                	j	80000b9a <dopr+0xb8>
    80000c64:	02a00613          	li	a2,42
    80000c68:	4715                	li	a4,5
    80000c6a:	ecc697e3          	bne	a3,a2,80000b38 <dopr+0x56>
    80000c6e:	00042803          	lw	a6,0(s0)
    80000c72:	b775                	j	80000c1e <dopr+0x13c>
    80000c74:	06800613          	li	a2,104
    80000c78:	8736                	mv	a4,a3
    80000c7a:	00c68c63          	beq	a3,a2,80000c92 <dopr+0x1b0>
    80000c7e:	06c00613          	li	a2,108
    80000c82:	00c68d63          	beq	a3,a2,80000c9c <dopr+0x1ba>
    80000c86:	04c00713          	li	a4,76
    80000c8a:	02e68563          	beq	a3,a4,80000cb4 <dopr+0x1d2>
    80000c8e:	4719                	li	a4,6
    80000c90:	b565                	j	80000b38 <dopr+0x56>
    80000c92:	000d4683          	lbu	a3,0(s10)
    80000c96:	4d85                	li	s11,1
    80000c98:	0d05                	add	s10,s10,1
    80000c9a:	bfd5                	j	80000c8e <dopr+0x1ac>
    80000c9c:	000d4683          	lbu	a3,0(s10)
    80000ca0:	00e68563          	beq	a3,a4,80000caa <dopr+0x1c8>
    80000ca4:	0d05                	add	s10,s10,1
    80000ca6:	4d89                	li	s11,2
    80000ca8:	b7dd                	j	80000c8e <dopr+0x1ac>
    80000caa:	001d4683          	lbu	a3,1(s10)
    80000cae:	4d91                	li	s11,4
    80000cb0:	0d09                	add	s10,s10,2
    80000cb2:	bff1                	j	80000c8e <dopr+0x1ac>
    80000cb4:	000d4683          	lbu	a3,0(s10)
    80000cb8:	4d8d                	li	s11,3
    80000cba:	0d05                	add	s10,s10,1
    80000cbc:	bfc9                	j	80000c8e <dopr+0x1ac>
    80000cbe:	07800713          	li	a4,120
    80000cc2:	02d76263          	bltu	a4,a3,80000ce6 <dopr+0x204>
    80000cc6:	05700713          	li	a4,87
    80000cca:	02d76963          	bltu	a4,a3,80000cfc <dopr+0x21a>
    80000cce:	04500793          	li	a5,69
    80000cd2:	12f68263          	beq	a3,a5,80000df6 <dopr+0x314>
    80000cd6:	04700793          	li	a5,71
    80000cda:	10f68e63          	beq	a3,a5,80000df6 <dopr+0x314>
    80000cde:	02500793          	li	a5,37
    80000ce2:	24f68d63          	beq	a3,a5,80000f3c <dopr+0x45a>
    80000ce6:	8ca2                	mv	s9,s0
    80000ce8:	000d4683          	lbu	a3,0(s10)
    80000cec:	8466                	mv	s0,s9
    80000cee:	0d05                	add	s10,s10,1
    80000cf0:	4d81                	li	s11,0
    80000cf2:	4881                	li	a7,0
    80000cf4:	4701                	li	a4,0
    80000cf6:	587d                	li	a6,-1
    80000cf8:	4781                	li	a5,0
    80000cfa:	bd3d                	j	80000b38 <dopr+0x56>
    80000cfc:	fa86869b          	addw	a3,a3,-88
    80000d00:	0ff6f693          	zext.b	a3,a3
    80000d04:	02000713          	li	a4,32
    80000d08:	fcd76fe3          	bltu	a4,a3,80000ce6 <dopr+0x204>
    80000d0c:	068a                	sll	a3,a3,0x2
    80000d0e:	96d2                	add	a3,a3,s4
    80000d10:	4298                	lw	a4,0(a3)
    80000d12:	9752                	add	a4,a4,s4
    80000d14:	8702                	jr	a4
    80000d16:	0d05                	add	s10,s10,1
    80000d18:	b7f9                	j	80000ce6 <dopr+0x204>
    80000d1a:	4705                	li	a4,1
    80000d1c:	00840c93          	add	s9,s0,8
    80000d20:	00ed9563          	bne	s11,a4,80000d2a <dopr+0x248>
    80000d24:	4014                	lw	a3,0(s0)
    80000d26:	4729                	li	a4,10
    80000d28:	a80d                	j	80000d5a <dopr+0x278>
    80000d2a:	4709                	li	a4,2
    80000d2c:	00ed9463          	bne	s11,a4,80000d34 <dopr+0x252>
    80000d30:	6014                	ld	a3,0(s0)
    80000d32:	bfd5                	j	80000d26 <dopr+0x244>
    80000d34:	4711                	li	a4,4
    80000d36:	feed97e3          	bne	s11,a4,80000d24 <dopr+0x242>
    80000d3a:	bfdd                	j	80000d30 <dopr+0x24e>
    80000d3c:	4705                	li	a4,1
    80000d3e:	0408e893          	or	a7,a7,64
    80000d42:	00840c93          	add	s9,s0,8
    80000d46:	00ed9563          	bne	s11,a4,80000d50 <dopr+0x26e>
    80000d4a:	00046683          	lwu	a3,0(s0)
    80000d4e:	a029                	j	80000d58 <dopr+0x276>
    80000d50:	4709                	li	a4,2
    80000d52:	00ed9a63          	bne	s11,a4,80000d66 <dopr+0x284>
    80000d56:	6014                	ld	a3,0(s0)
    80000d58:	4721                	li	a4,8
    80000d5a:	864a                	mv	a2,s2
    80000d5c:	102c                	add	a1,sp,40
    80000d5e:	8526                	mv	a0,s1
    80000d60:	ed0ff0ef          	jal	80000430 <fmtint>
    80000d64:	b751                	j	80000ce8 <dopr+0x206>
    80000d66:	4711                	li	a4,4
    80000d68:	feed91e3          	bne	s11,a4,80000d4a <dopr+0x268>
    80000d6c:	b7ed                	j	80000d56 <dopr+0x274>
    80000d6e:	4705                	li	a4,1
    80000d70:	0408e893          	or	a7,a7,64
    80000d74:	00840c93          	add	s9,s0,8
    80000d78:	00ed9563          	bne	s11,a4,80000d82 <dopr+0x2a0>
    80000d7c:	00046683          	lwu	a3,0(s0)
    80000d80:	b75d                	j	80000d26 <dopr+0x244>
    80000d82:	4709                	li	a4,2
    80000d84:	faed86e3          	beq	s11,a4,80000d30 <dopr+0x24e>
    80000d88:	4711                	li	a4,4
    80000d8a:	feed99e3          	bne	s11,a4,80000d7c <dopr+0x29a>
    80000d8e:	b74d                	j	80000d30 <dopr+0x24e>
    80000d90:	0208e893          	or	a7,a7,32
    80000d94:	4705                	li	a4,1
    80000d96:	0408e893          	or	a7,a7,64
    80000d9a:	00840c93          	add	s9,s0,8
    80000d9e:	00ed9563          	bne	s11,a4,80000da8 <dopr+0x2c6>
    80000da2:	00046683          	lwu	a3,0(s0)
    80000da6:	a029                	j	80000db0 <dopr+0x2ce>
    80000da8:	4709                	li	a4,2
    80000daa:	00ed9563          	bne	s11,a4,80000db4 <dopr+0x2d2>
    80000dae:	6014                	ld	a3,0(s0)
    80000db0:	4741                	li	a4,16
    80000db2:	b765                	j	80000d5a <dopr+0x278>
    80000db4:	4711                	li	a4,4
    80000db6:	feed96e3          	bne	s11,a4,80000da2 <dopr+0x2c0>
    80000dba:	bfd5                	j	80000dae <dopr+0x2cc>
    80000dbc:	470d                	li	a4,3
    80000dbe:	00ed9e63          	bne	s11,a4,80000dda <dopr+0x2f8>
    80000dc2:	043d                	add	s0,s0,15
    80000dc4:	9841                	and	s0,s0,-16
    80000dc6:	6014                	ld	a3,0(s0)
    80000dc8:	6418                	ld	a4,8(s0)
    80000dca:	01040c93          	add	s9,s0,16
    80000dce:	864a                	mv	a2,s2
    80000dd0:	102c                	add	a1,sp,40
    80000dd2:	8526                	mv	a0,s1
    80000dd4:	8c7ff0ef          	jal	8000069a <fmtfp>
    80000dd8:	bf01                	j	80000ce8 <dopr+0x206>
    80000dda:	6008                	ld	a0,0(s0)
    80000ddc:	ec3e                	sd	a5,24(sp)
    80000dde:	e842                	sd	a6,16(sp)
    80000de0:	e446                	sd	a7,8(sp)
    80000de2:	1fb020ef          	jal	800037dc <__extenddftf2>
    80000de6:	67e2                	ld	a5,24(sp)
    80000de8:	6842                	ld	a6,16(sp)
    80000dea:	68a2                	ld	a7,8(sp)
    80000dec:	00840c93          	add	s9,s0,8
    80000df0:	86aa                	mv	a3,a0
    80000df2:	872e                	mv	a4,a1
    80000df4:	bfe9                	j	80000dce <dopr+0x2ec>
    80000df6:	478d                	li	a5,3
    80000df8:	00840c93          	add	s9,s0,8
    80000dfc:	eefd96e3          	bne	s11,a5,80000ce8 <dopr+0x206>
    80000e00:	043d                	add	s0,s0,15
    80000e02:	9841                	and	s0,s0,-16
    80000e04:	01040c93          	add	s9,s0,16
    80000e08:	b5c5                	j	80000ce8 <dopr+0x206>
    80000e0a:	00044683          	lbu	a3,0(s0)
    80000e0e:	864a                	mv	a2,s2
    80000e10:	102c                	add	a1,sp,40
    80000e12:	8526                	mv	a0,s1
    80000e14:	00840c93          	add	s9,s0,8
    80000e18:	e04ff0ef          	jal	8000041c <dopr_outch>
    80000e1c:	b5f1                	j	80000ce8 <dopr+0x206>
    80000e1e:	56fd                	li	a3,-1
    80000e20:	00043b03          	ld	s6,0(s0)
    80000e24:	00840c93          	add	s9,s0,8
    80000e28:	00d81b63          	bne	a6,a3,80000e3e <dopr+0x35c>
    80000e2c:	855a                	mv	a0,s6
    80000e2e:	e83e                	sd	a5,16(sp)
    80000e30:	e446                	sd	a7,8(sp)
    80000e32:	620000ef          	jal	80001452 <libmin_strlen>
    80000e36:	67c2                	ld	a5,16(sp)
    80000e38:	68a2                	ld	a7,8(sp)
    80000e3a:	0005081b          	sext.w	a6,a0
    80000e3e:	00f05a63          	blez	a5,80000e52 <dopr+0x370>
    80000e42:	00084863          	bltz	a6,80000e52 <dopr+0x370>
    80000e46:	86c2                	mv	a3,a6
    80000e48:	00f85363          	bge	a6,a5,80000e4e <dopr+0x36c>
    80000e4c:	86be                	mv	a3,a5
    80000e4e:	0006881b          	sext.w	a6,a3
    80000e52:	000b1663          	bnez	s6,80000e5e <dopr+0x37c>
    80000e56:	00006b17          	auipc	s6,0x6
    80000e5a:	b8ab0b13          	add	s6,s6,-1142 # 800069e0 <__clz_tab+0x2f8>
    80000e5e:	4601                	li	a2,0
    80000e60:	86b2                	mv	a3,a2
    80000e62:	0605                	add	a2,a2,1
    80000e64:	00cb05b3          	add	a1,s6,a2
    80000e68:	fff5c583          	lbu	a1,-1(a1)
    80000e6c:	f9f5                	bnez	a1,80000e60 <dopr+0x37e>
    80000e6e:	9f95                	subw	a5,a5,a3
    80000e70:	02079693          	sll	a3,a5,0x20
    80000e74:	0006d363          	bgez	a3,80000e7a <dopr+0x398>
    80000e78:	4781                	li	a5,0
    80000e7a:	0018f893          	and	a7,a7,1
    80000e7e:	0007831b          	sext.w	t1,a5
    80000e82:	00088463          	beqz	a7,80000e8a <dopr+0x3a8>
    80000e86:	40f0033b          	negw	t1,a5
    80000e8a:	841a                	mv	s0,t1
    80000e8c:	102c                	add	a1,sp,40
    80000e8e:	00040c1b          	sext.w	s8,s0
    80000e92:	40830dbb          	subw	s11,t1,s0
    80000e96:	02804b63          	bgtz	s0,80000ecc <dopr+0x3ea>
    80000e9a:	102c                	add	a1,sp,40
    80000e9c:	000b4683          	lbu	a3,0(s6)
    80000ea0:	e6b1                	bnez	a3,80000eec <dopr+0x40a>
    80000ea2:	418d8dbb          	subw	s11,s11,s8
    80000ea6:	102c                	add	a1,sp,40
    80000ea8:	e40450e3          	bgez	s0,80000ce8 <dopr+0x206>
    80000eac:	008d87bb          	addw	a5,s11,s0
    80000eb0:	e307dce3          	bge	a5,a6,80000ce8 <dopr+0x206>
    80000eb4:	02000693          	li	a3,32
    80000eb8:	864a                	mv	a2,s2
    80000eba:	8526                	mv	a0,s1
    80000ebc:	e842                	sd	a6,16(sp)
    80000ebe:	e42e                	sd	a1,8(sp)
    80000ec0:	d5cff0ef          	jal	8000041c <dopr_outch>
    80000ec4:	6842                	ld	a6,16(sp)
    80000ec6:	65a2                	ld	a1,8(sp)
    80000ec8:	2405                	addw	s0,s0,1
    80000eca:	bff9                	j	80000ea8 <dopr+0x3c6>
    80000ecc:	fd0dd7e3          	bge	s11,a6,80000e9a <dopr+0x3b8>
    80000ed0:	02000693          	li	a3,32
    80000ed4:	864a                	mv	a2,s2
    80000ed6:	8526                	mv	a0,s1
    80000ed8:	ec42                	sd	a6,24(sp)
    80000eda:	e81a                	sd	t1,16(sp)
    80000edc:	e42e                	sd	a1,8(sp)
    80000ede:	d3eff0ef          	jal	8000041c <dopr_outch>
    80000ee2:	6862                	ld	a6,24(sp)
    80000ee4:	6342                	ld	t1,16(sp)
    80000ee6:	65a2                	ld	a1,8(sp)
    80000ee8:	347d                	addw	s0,s0,-1
    80000eea:	b755                	j	80000e8e <dopr+0x3ac>
    80000eec:	fb0ddbe3          	bge	s11,a6,80000ea2 <dopr+0x3c0>
    80000ef0:	864a                	mv	a2,s2
    80000ef2:	8526                	mv	a0,s1
    80000ef4:	e842                	sd	a6,16(sp)
    80000ef6:	e42e                	sd	a1,8(sp)
    80000ef8:	d24ff0ef          	jal	8000041c <dopr_outch>
    80000efc:	6842                	ld	a6,16(sp)
    80000efe:	65a2                	ld	a1,8(sp)
    80000f00:	0b05                	add	s6,s6,1
    80000f02:	2d85                	addw	s11,s11,1
    80000f04:	bf61                	j	80000e9c <dopr+0x3ba>
    80000f06:	6014                	ld	a3,0(s0)
    80000f08:	00840c93          	add	s9,s0,8
    80000f0c:	4741                	li	a4,16
    80000f0e:	b5b1                	j	80000d5a <dopr+0x278>
    80000f10:	4705                	li	a4,1
    80000f12:	77a2                	ld	a5,40(sp)
    80000f14:	00840c93          	add	s9,s0,8
    80000f18:	00ed9663          	bne	s11,a4,80000f24 <dopr+0x442>
    80000f1c:	6018                	ld	a4,0(s0)
    80000f1e:	00f71023          	sh	a5,0(a4)
    80000f22:	b3d9                	j	80000ce8 <dopr+0x206>
    80000f24:	4709                	li	a4,2
    80000f26:	00ed9563          	bne	s11,a4,80000f30 <dopr+0x44e>
    80000f2a:	6018                	ld	a4,0(s0)
    80000f2c:	e31c                	sd	a5,0(a4)
    80000f2e:	bb6d                	j	80000ce8 <dopr+0x206>
    80000f30:	4711                	li	a4,4
    80000f32:	feed8ce3          	beq	s11,a4,80000f2a <dopr+0x448>
    80000f36:	6018                	ld	a4,0(s0)
    80000f38:	c31c                	sw	a5,0(a4)
    80000f3a:	b37d                	j	80000ce8 <dopr+0x206>
    80000f3c:	02500693          	li	a3,37
    80000f40:	864a                	mv	a2,s2
    80000f42:	102c                	add	a1,sp,40
    80000f44:	8526                	mv	a0,s1
    80000f46:	cd6ff0ef          	jal	8000041c <dopr_outch>
    80000f4a:	bb71                	j	80000ce6 <dopr+0x204>
    80000f4c:	197d                	add	s2,s2,-1
    80000f4e:	01257663          	bgeu	a0,s2,80000f5a <dopr+0x478>
    80000f52:	94aa                	add	s1,s1,a0
    80000f54:	00048023          	sb	zero,0(s1)
    80000f58:	b119                	j	80000b5e <dopr+0x7c>
    80000f5a:	94ca                	add	s1,s1,s2
    80000f5c:	bfe5                	j	80000f54 <dopr+0x472>

0000000080000f5e <libmin_printf>:
    80000f5e:	b9010113          	add	sp,sp,-1136
    80000f62:	40913c23          	sd	s1,1048(sp)
    80000f66:	0804                	add	s1,sp,16
    80000f68:	42b13c23          	sd	a1,1080(sp)
    80000f6c:	44c13023          	sd	a2,1088(sp)
    80000f70:	44d13423          	sd	a3,1096(sp)
    80000f74:	862a                	mv	a2,a0
    80000f76:	43810693          	add	a3,sp,1080
    80000f7a:	40000593          	li	a1,1024
    80000f7e:	8526                	mv	a0,s1
    80000f80:	44f13c23          	sd	a5,1112(sp)
    80000f84:	42113423          	sd	ra,1064(sp)
    80000f88:	42813023          	sd	s0,1056(sp)
    80000f8c:	44e13823          	sd	a4,1104(sp)
    80000f90:	47013023          	sd	a6,1120(sp)
    80000f94:	47113423          	sd	a7,1128(sp)
    80000f98:	e436                	sd	a3,8(sp)
    80000f9a:	b49ff0ef          	jal	80000ae2 <dopr>
    80000f9e:	4781                	li	a5,0
    80000fa0:	400107a3          	sb	zero,1039(sp)
    80000fa4:	00178413          	add	s0,a5,1
    80000fa8:	00848733          	add	a4,s1,s0
    80000fac:	fff74503          	lbu	a0,-1(a4)
    80000fb0:	ed01                	bnez	a0,80000fc8 <libmin_printf+0x6a>
    80000fb2:	42813083          	ld	ra,1064(sp)
    80000fb6:	42013403          	ld	s0,1056(sp)
    80000fba:	41813483          	ld	s1,1048(sp)
    80000fbe:	0007851b          	sext.w	a0,a5
    80000fc2:	47010113          	add	sp,sp,1136
    80000fc6:	8082                	ret
    80000fc8:	8b6ff0ef          	jal	8000007e <libtarg_putc>
    80000fcc:	87a2                	mv	a5,s0
    80000fce:	bfd9                	j	80000fa4 <libmin_printf+0x46>

0000000080000fd0 <libmin_sfprintf>:
    80000fd0:	ba010113          	add	sp,sp,-1120
    80000fd4:	42813023          	sd	s0,1056(sp)
    80000fd8:	0800                	add	s0,sp,16
    80000fda:	41213823          	sd	s2,1040(sp)
    80000fde:	42c13823          	sd	a2,1072(sp)
    80000fe2:	892a                	mv	s2,a0
    80000fe4:	42d13c23          	sd	a3,1080(sp)
    80000fe8:	862e                	mv	a2,a1
    80000fea:	43010693          	add	a3,sp,1072
    80000fee:	40000593          	li	a1,1024
    80000ff2:	8522                	mv	a0,s0
    80000ff4:	42113423          	sd	ra,1064(sp)
    80000ff8:	40913c23          	sd	s1,1048(sp)
    80000ffc:	44e13023          	sd	a4,1088(sp)
    80001000:	44f13423          	sd	a5,1096(sp)
    80001004:	45013823          	sd	a6,1104(sp)
    80001008:	45113c23          	sd	a7,1112(sp)
    8000100c:	e436                	sd	a3,8(sp)
    8000100e:	ad5ff0ef          	jal	80000ae2 <dopr>
    80001012:	84aa                	mv	s1,a0
    80001014:	85ca                	mv	a1,s2
    80001016:	8522                	mv	a0,s0
    80001018:	400107a3          	sb	zero,1039(sp)
    8000101c:	20c000ef          	jal	80001228 <libmin_sfputs>
    80001020:	42813083          	ld	ra,1064(sp)
    80001024:	42013403          	ld	s0,1056(sp)
    80001028:	41013903          	ld	s2,1040(sp)
    8000102c:	0004851b          	sext.w	a0,s1
    80001030:	41813483          	ld	s1,1048(sp)
    80001034:	46010113          	add	sp,sp,1120
    80001038:	8082                	ret

000000008000103a <libmin_sprintf>:
    8000103a:	715d                	add	sp,sp,-80
    8000103c:	f032                	sd	a2,32(sp)
    8000103e:	f436                	sd	a3,40(sp)
    80001040:	862e                	mv	a2,a1
    80001042:	1014                	add	a3,sp,32
    80001044:	55fd                	li	a1,-1
    80001046:	ec06                	sd	ra,24(sp)
    80001048:	f83a                	sd	a4,48(sp)
    8000104a:	fc3e                	sd	a5,56(sp)
    8000104c:	e0c2                	sd	a6,64(sp)
    8000104e:	e4c6                	sd	a7,72(sp)
    80001050:	e436                	sd	a3,8(sp)
    80001052:	a91ff0ef          	jal	80000ae2 <dopr>
    80001056:	60e2                	ld	ra,24(sp)
    80001058:	2501                	sext.w	a0,a0
    8000105a:	6161                	add	sp,sp,80
    8000105c:	8082                	ret

000000008000105e <libmin_snprintf>:
    8000105e:	715d                	add	sp,sp,-80
    80001060:	f436                	sd	a3,40(sp)
    80001062:	1034                	add	a3,sp,40
    80001064:	ec06                	sd	ra,24(sp)
    80001066:	f83a                	sd	a4,48(sp)
    80001068:	fc3e                	sd	a5,56(sp)
    8000106a:	e0c2                	sd	a6,64(sp)
    8000106c:	e4c6                	sd	a7,72(sp)
    8000106e:	e436                	sd	a3,8(sp)
    80001070:	a73ff0ef          	jal	80000ae2 <dopr>
    80001074:	60e2                	ld	ra,24(sp)
    80001076:	2501                	sext.w	a0,a0
    80001078:	6161                	add	sp,sp,80
    8000107a:	8082                	ret

000000008000107c <libmin_putc>:
    8000107c:	802ff06f          	j	8000007e <libtarg_putc>

0000000080001080 <request_escape_sequence>:
    80001080:	4781                	li	a5,0
    80001082:	00006617          	auipc	a2,0x6
    80001086:	33e60613          	add	a2,a2,830 # 800073c0 <esc_seq_in_use>
    8000108a:	46a1                	li	a3,8
    8000108c:	00f60733          	add	a4,a2,a5
    80001090:	00074583          	lbu	a1,0(a4)
    80001094:	ed81                	bnez	a1,800010ac <request_escape_sequence+0x2c>
    80001096:	4685                	li	a3,1
    80001098:	00d70023          	sb	a3,0(a4)
    8000109c:	078e                	sll	a5,a5,0x3
    8000109e:	00006717          	auipc	a4,0x6
    800010a2:	cea70713          	add	a4,a4,-790 # 80006d88 <escape_sequences>
    800010a6:	97ba                	add	a5,a5,a4
    800010a8:	6388                	ld	a0,0(a5)
    800010aa:	8082                	ret
    800010ac:	0785                	add	a5,a5,1
    800010ae:	fcd79fe3          	bne	a5,a3,8000108c <request_escape_sequence+0xc>
    800010b2:	4501                	li	a0,0
    800010b4:	8082                	ret

00000000800010b6 <find_file>:
    800010b6:	1101                	add	sp,sp,-32
    800010b8:	e822                	sd	s0,16(sp)
    800010ba:	e426                	sd	s1,8(sp)
    800010bc:	ec06                	sd	ra,24(sp)
    800010be:	84aa                	mv	s1,a0
    800010c0:	00006417          	auipc	s0,0x6
    800010c4:	30843403          	ld	s0,776(s0) # 800073c8 <live_files_head>
    800010c8:	e419                	bnez	s0,800010d6 <find_file+0x20>
    800010ca:	60e2                	ld	ra,24(sp)
    800010cc:	8522                	mv	a0,s0
    800010ce:	6442                	ld	s0,16(sp)
    800010d0:	64a2                	ld	s1,8(sp)
    800010d2:	6105                	add	sp,sp,32
    800010d4:	8082                	ret
    800010d6:	05000613          	li	a2,80
    800010da:	85a6                	mv	a1,s1
    800010dc:	00840513          	add	a0,s0,8
    800010e0:	3c8000ef          	jal	800014a8 <libmin_strncmp>
    800010e4:	d17d                	beqz	a0,800010ca <find_file+0x14>
    800010e6:	17043403          	ld	s0,368(s0)
    800010ea:	bff9                	j	800010c8 <find_file+0x12>

00000000800010ec <create_sfile>:
    800010ec:	7179                	add	sp,sp,-48
    800010ee:	e052                	sd	s4,0(sp)
    800010f0:	8a2e                	mv	s4,a1
    800010f2:	05000593          	li	a1,80
    800010f6:	e84a                	sd	s2,16(sp)
    800010f8:	e44e                	sd	s3,8(sp)
    800010fa:	f406                	sd	ra,40(sp)
    800010fc:	f022                	sd	s0,32(sp)
    800010fe:	ec26                	sd	s1,24(sp)
    80001100:	892a                	mv	s2,a0
    80001102:	89b2                	mv	s3,a2
    80001104:	348000ef          	jal	8000144c <libmin_strfits>
    80001108:	e11d                	bnez	a0,8000112e <create_sfile+0x42>
    8000110a:	05000593          	li	a1,80
    8000110e:	00006517          	auipc	a0,0x6
    80001112:	8da50513          	add	a0,a0,-1830 # 800069e8 <__clz_tab+0x300>
    80001116:	e49ff0ef          	jal	80000f5e <libmin_printf>
    8000111a:	4401                	li	s0,0
    8000111c:	70a2                	ld	ra,40(sp)
    8000111e:	8522                	mv	a0,s0
    80001120:	7402                	ld	s0,32(sp)
    80001122:	64e2                	ld	s1,24(sp)
    80001124:	6942                	ld	s2,16(sp)
    80001126:	69a2                	ld	s3,8(sp)
    80001128:	6a02                	ld	s4,0(sp)
    8000112a:	6145                	add	sp,sp,48
    8000112c:	8082                	ret
    8000112e:	00006497          	auipc	s1,0x6
    80001132:	29248493          	add	s1,s1,658 # 800073c0 <esc_seq_in_use>
    80001136:	6898                	ld	a4,16(s1)
    80001138:	479d                	li	a5,7
    8000113a:	00e7f963          	bgeu	a5,a4,8000114c <create_sfile+0x60>
    8000113e:	00006517          	auipc	a0,0x6
    80001142:	8d250513          	add	a0,a0,-1838 # 80006a10 <__clz_tab+0x328>
    80001146:	e19ff0ef          	jal	80000f5e <libmin_printf>
    8000114a:	bfc1                	j	8000111a <create_sfile+0x2e>
    8000114c:	854a                	mv	a0,s2
    8000114e:	f69ff0ef          	jal	800010b6 <find_file>
    80001152:	c511                	beqz	a0,8000115e <create_sfile+0x72>
    80001154:	00006517          	auipc	a0,0x6
    80001158:	8e450513          	add	a0,a0,-1820 # 80006a38 <__clz_tab+0x350>
    8000115c:	b7ed                	j	80001146 <create_sfile+0x5a>
    8000115e:	18000513          	li	a0,384
    80001162:	3c0000ef          	jal	80001522 <libmin_malloc>
    80001166:	6c9c                	ld	a5,24(s1)
    80001168:	842a                	mv	s0,a0
    8000116a:	85ca                	mv	a1,s2
    8000116c:	00178713          	add	a4,a5,1
    80001170:	e11c                	sd	a5,0(a0)
    80001172:	0521                	add	a0,a0,8
    80001174:	ec98                	sd	a4,24(s1)
    80001176:	2c4000ef          	jal	8000143a <libmin_strcpy>
    8000117a:	10000613          	li	a2,256
    8000117e:	05443c23          	sd	s4,88(s0)
    80001182:	4581                	li	a1,0
    80001184:	06040513          	add	a0,s0,96
    80001188:	a3cff0ef          	jal	800003c4 <libmin_memset>
    8000118c:	649c                	ld	a5,8(s1)
    8000118e:	16043023          	sd	zero,352(s0)
    80001192:	17342423          	sw	s3,360(s0)
    80001196:	16043823          	sd	zero,368(s0)
    8000119a:	eb89                	bnez	a5,800011ac <create_sfile+0xc0>
    8000119c:	e480                	sd	s0,8(s1)
    8000119e:	f080                	sd	s0,32(s1)
    800011a0:	16f43c23          	sd	a5,376(s0)
    800011a4:	689c                	ld	a5,16(s1)
    800011a6:	0785                	add	a5,a5,1
    800011a8:	e89c                	sd	a5,16(s1)
    800011aa:	bf8d                	j	8000111c <create_sfile+0x30>
    800011ac:	7098                	ld	a4,32(s1)
    800011ae:	00e79663          	bne	a5,a4,800011ba <create_sfile+0xce>
    800011b2:	f080                	sd	s0,32(s1)
    800011b4:	1687b823          	sd	s0,368(a5)
    800011b8:	b7e5                	j	800011a0 <create_sfile+0xb4>
    800011ba:	16873823          	sd	s0,368(a4)
    800011be:	87ba                	mv	a5,a4
    800011c0:	b7c5                	j	800011a0 <create_sfile+0xb4>

00000000800011c2 <sflush_safe>:
    800011c2:	16053783          	ld	a5,352(a0)
    800011c6:	c3a5                	beqz	a5,80001226 <sflush_safe+0x64>
    800011c8:	1101                	add	sp,sp,-32
    800011ca:	e426                	sd	s1,8(sp)
    800011cc:	06050493          	add	s1,a0,96
    800011d0:	e822                	sd	s0,16(sp)
    800011d2:	e04a                	sd	s2,0(sp)
    800011d4:	ec06                	sd	ra,24(sp)
    800011d6:	842a                	mv	s0,a0
    800011d8:	8926                	mv	s2,s1
    800011da:	00094503          	lbu	a0,0(s2)
    800011de:	e905                	bnez	a0,8000120e <sflush_safe+0x4c>
    800011e0:	16043783          	ld	a5,352(s0)
    800011e4:	97a2                	add	a5,a5,s0
    800011e6:	06078023          	sb	zero,96(a5)
    800011ea:	0004c503          	lbu	a0,0(s1)
    800011ee:	e505                	bnez	a0,80001216 <sflush_safe+0x54>
    800011f0:	00006497          	auipc	s1,0x6
    800011f4:	87848493          	add	s1,s1,-1928 # 80006a68 <__clz_tab+0x380>
    800011f8:	0004c503          	lbu	a0,0(s1)
    800011fc:	e10d                	bnez	a0,8000121e <sflush_safe+0x5c>
    800011fe:	60e2                	ld	ra,24(sp)
    80001200:	16043023          	sd	zero,352(s0)
    80001204:	6442                	ld	s0,16(sp)
    80001206:	64a2                	ld	s1,8(sp)
    80001208:	6902                	ld	s2,0(sp)
    8000120a:	6105                	add	sp,sp,32
    8000120c:	8082                	ret
    8000120e:	e71fe0ef          	jal	8000007e <libtarg_putc>
    80001212:	0905                	add	s2,s2,1
    80001214:	b7d9                	j	800011da <sflush_safe+0x18>
    80001216:	e69fe0ef          	jal	8000007e <libtarg_putc>
    8000121a:	0485                	add	s1,s1,1
    8000121c:	b7f9                	j	800011ea <sflush_safe+0x28>
    8000121e:	e61fe0ef          	jal	8000007e <libtarg_putc>
    80001222:	0485                	add	s1,s1,1
    80001224:	bfd1                	j	800011f8 <sflush_safe+0x36>
    80001226:	8082                	ret

0000000080001228 <libmin_sfputs>:
    80001228:	cdc9                	beqz	a1,800012c2 <libmin_sfputs+0x9a>
    8000122a:	1685a703          	lw	a4,360(a1)
    8000122e:	715d                	add	sp,sp,-80
    80001230:	e0a2                	sd	s0,64(sp)
    80001232:	e486                	sd	ra,72(sp)
    80001234:	fc26                	sd	s1,56(sp)
    80001236:	f84a                	sd	s2,48(sp)
    80001238:	f44e                	sd	s3,40(sp)
    8000123a:	f052                	sd	s4,32(sp)
    8000123c:	ec56                	sd	s5,24(sp)
    8000123e:	e85a                	sd	s6,16(sp)
    80001240:	e45e                	sd	s7,8(sp)
    80001242:	842e                	mv	s0,a1
    80001244:	57fd                	li	a5,-1
    80001246:	ef0d                	bnez	a4,80001280 <libmin_sfputs+0x58>
    80001248:	89aa                	mv	s3,a0
    8000124a:	208000ef          	jal	80001452 <libmin_strlen>
    8000124e:	84aa                	mv	s1,a0
    80001250:	0fe00b13          	li	s6,254
    80001254:	06040a93          	add	s5,s0,96
    80001258:	0ff00b93          	li	s7,255
    8000125c:	16043903          	ld	s2,352(s0)
    80001260:	009907b3          	add	a5,s2,s1
    80001264:	02fb6a63          	bltu	s6,a5,80001298 <libmin_sfputs+0x70>
    80001268:	8626                	mv	a2,s1
    8000126a:	85ce                	mv	a1,s3
    8000126c:	012a8533          	add	a0,s5,s2
    80001270:	280000ef          	jal	800014f0 <libmin_strncpy>
    80001274:	16043783          	ld	a5,352(s0)
    80001278:	97a6                	add	a5,a5,s1
    8000127a:	16f43023          	sd	a5,352(s0)
    8000127e:	4781                	li	a5,0
    80001280:	60a6                	ld	ra,72(sp)
    80001282:	6406                	ld	s0,64(sp)
    80001284:	74e2                	ld	s1,56(sp)
    80001286:	7942                	ld	s2,48(sp)
    80001288:	79a2                	ld	s3,40(sp)
    8000128a:	7a02                	ld	s4,32(sp)
    8000128c:	6ae2                	ld	s5,24(sp)
    8000128e:	6b42                	ld	s6,16(sp)
    80001290:	6ba2                	ld	s7,8(sp)
    80001292:	853e                	mv	a0,a5
    80001294:	6161                	add	sp,sp,80
    80001296:	8082                	ret
    80001298:	412b8a33          	sub	s4,s7,s2
    8000129c:	85ce                	mv	a1,s3
    8000129e:	8652                	mv	a2,s4
    800012a0:	012a8533          	add	a0,s5,s2
    800012a4:	24c000ef          	jal	800014f0 <libmin_strncpy>
    800012a8:	16043783          	ld	a5,352(s0)
    800012ac:	8522                	mv	a0,s0
    800012ae:	f0190913          	add	s2,s2,-255
    800012b2:	97d2                	add	a5,a5,s4
    800012b4:	16f43023          	sd	a5,352(s0)
    800012b8:	f0bff0ef          	jal	800011c2 <sflush_safe>
    800012bc:	99d2                	add	s3,s3,s4
    800012be:	94ca                	add	s1,s1,s2
    800012c0:	bf71                	j	8000125c <libmin_sfputs+0x34>
    800012c2:	57fd                	li	a5,-1
    800012c4:	853e                	mv	a0,a5
    800012c6:	8082                	ret

00000000800012c8 <libmin_sfputc>:
    800012c8:	1101                	add	sp,sp,-32
    800012ca:	ec06                	sd	ra,24(sp)
    800012cc:	e822                	sd	s0,16(sp)
    800012ce:	e426                	sd	s1,8(sp)
    800012d0:	cd95                	beqz	a1,8000130c <libmin_sfputc+0x44>
    800012d2:	1685a783          	lw	a5,360(a1)
    800012d6:	842e                	mv	s0,a1
    800012d8:	eb95                	bnez	a5,8000130c <libmin_sfputc+0x44>
    800012da:	1605b703          	ld	a4,352(a1)
    800012de:	0fe00793          	li	a5,254
    800012e2:	84aa                	mv	s1,a0
    800012e4:	00e7f563          	bgeu	a5,a4,800012ee <libmin_sfputc+0x26>
    800012e8:	852e                	mv	a0,a1
    800012ea:	ed9ff0ef          	jal	800011c2 <sflush_safe>
    800012ee:	16043783          	ld	a5,352(s0)
    800012f2:	00178713          	add	a4,a5,1
    800012f6:	16e43023          	sd	a4,352(s0)
    800012fa:	943e                	add	s0,s0,a5
    800012fc:	06940023          	sb	s1,96(s0)
    80001300:	60e2                	ld	ra,24(sp)
    80001302:	6442                	ld	s0,16(sp)
    80001304:	8526                	mv	a0,s1
    80001306:	64a2                	ld	s1,8(sp)
    80001308:	6105                	add	sp,sp,32
    8000130a:	8082                	ret
    8000130c:	54fd                	li	s1,-1
    8000130e:	bfcd                	j	80001300 <libmin_sfputc+0x38>

0000000080001310 <libmin_sfflush>:
    80001310:	1141                	add	sp,sp,-16
    80001312:	e406                	sd	ra,8(sp)
    80001314:	e022                	sd	s0,0(sp)
    80001316:	e10d                	bnez	a0,80001338 <libmin_sfflush+0x28>
    80001318:	00006417          	auipc	s0,0x6
    8000131c:	0b043403          	ld	s0,176(s0) # 800073c8 <live_files_head>
    80001320:	e411                	bnez	s0,8000132c <libmin_sfflush+0x1c>
    80001322:	60a2                	ld	ra,8(sp)
    80001324:	6402                	ld	s0,0(sp)
    80001326:	4501                	li	a0,0
    80001328:	0141                	add	sp,sp,16
    8000132a:	8082                	ret
    8000132c:	8522                	mv	a0,s0
    8000132e:	e95ff0ef          	jal	800011c2 <sflush_safe>
    80001332:	17043403          	ld	s0,368(s0)
    80001336:	b7ed                	j	80001320 <libmin_sfflush+0x10>
    80001338:	e8bff0ef          	jal	800011c2 <sflush_safe>
    8000133c:	b7dd                	j	80001322 <libmin_sfflush+0x12>

000000008000133e <get_file_mode>:
    8000133e:	1141                	add	sp,sp,-16
    80001340:	4609                	li	a2,2
    80001342:	00005597          	auipc	a1,0x5
    80001346:	72e58593          	add	a1,a1,1838 # 80006a70 <__clz_tab+0x388>
    8000134a:	e406                	sd	ra,8(sp)
    8000134c:	15c000ef          	jal	800014a8 <libmin_strncmp>
    80001350:	c911                	beqz	a0,80001364 <get_file_mode+0x26>
    80001352:	00005517          	auipc	a0,0x5
    80001356:	72650513          	add	a0,a0,1830 # 80006a78 <__clz_tab+0x390>
    8000135a:	c05ff0ef          	jal	80000f5e <libmin_printf>
    8000135e:	4505                	li	a0,1
    80001360:	1be000ef          	jal	8000151e <libmin_exit>
    80001364:	60a2                	ld	ra,8(sp)
    80001366:	4501                	li	a0,0
    80001368:	0141                	add	sp,sp,16
    8000136a:	8082                	ret

000000008000136c <libmin_sfopen>:
    8000136c:	1101                	add	sp,sp,-32
    8000136e:	e822                	sd	s0,16(sp)
    80001370:	842a                	mv	s0,a0
    80001372:	852e                	mv	a0,a1
    80001374:	ec06                	sd	ra,24(sp)
    80001376:	fc9ff0ef          	jal	8000133e <get_file_mode>
    8000137a:	e42a                	sd	a0,8(sp)
    8000137c:	d05ff0ef          	jal	80001080 <request_escape_sequence>
    80001380:	85aa                	mv	a1,a0
    80001382:	8522                	mv	a0,s0
    80001384:	6442                	ld	s0,16(sp)
    80001386:	6622                	ld	a2,8(sp)
    80001388:	60e2                	ld	ra,24(sp)
    8000138a:	6105                	add	sp,sp,32
    8000138c:	b385                	j	800010ec <create_sfile>

000000008000138e <serial_output_init>:
    8000138e:	715d                	add	sp,sp,-80
    80001390:	e486                	sd	ra,72(sp)
    80001392:	e0a2                	sd	s0,64(sp)
    80001394:	fc26                	sd	s1,56(sp)
    80001396:	f84a                	sd	s2,48(sp)
    80001398:	f44e                	sd	s3,40(sp)
    8000139a:	f052                	sd	s4,32(sp)
    8000139c:	ec56                	sd	s5,24(sp)
    8000139e:	00006417          	auipc	s0,0x6
    800013a2:	02240413          	add	s0,s0,34 # 800073c0 <esc_seq_in_use>
    800013a6:	4785                	li	a5,1
    800013a8:	4601                	li	a2,0
    800013aa:	00005597          	auipc	a1,0x5
    800013ae:	6be58593          	add	a1,a1,1726 # 80006a68 <__clz_tab+0x380>
    800013b2:	00005517          	auipc	a0,0x5
    800013b6:	6ee50513          	add	a0,a0,1774 # 80006aa0 <__clz_tab+0x3b8>
    800013ba:	ec1c                	sd	a5,24(s0)
    800013bc:	d31ff0ef          	jal	800010ec <create_sfile>
    800013c0:	f408                	sd	a0,40(s0)
    800013c2:	4601                	li	a2,0
    800013c4:	00005597          	auipc	a1,0x5
    800013c8:	6e458593          	add	a1,a1,1764 # 80006aa8 <__clz_tab+0x3c0>
    800013cc:	00005517          	auipc	a0,0x5
    800013d0:	6e450513          	add	a0,a0,1764 # 80006ab0 <__clz_tab+0x3c8>
    800013d4:	d19ff0ef          	jal	800010ec <create_sfile>
    800013d8:	f808                	sd	a0,48(s0)
    800013da:	00006497          	auipc	s1,0x6
    800013de:	9ae48493          	add	s1,s1,-1618 # 80006d88 <escape_sequences>
    800013e2:	00006997          	auipc	s3,0x6
    800013e6:	fe698993          	add	s3,s3,-26 # 800073c8 <live_files_head>
    800013ea:	00005a17          	auipc	s4,0x5
    800013ee:	67ea0a13          	add	s4,s4,1662 # 80006a68 <__clz_tab+0x380>
    800013f2:	00005a97          	auipc	s5,0x5
    800013f6:	6b6a8a93          	add	s5,s5,1718 # 80006aa8 <__clz_tab+0x3c0>
    800013fa:	4905                	li	s2,1
    800013fc:	608c                	ld	a1,0(s1)
    800013fe:	4635                	li	a2,13
    80001400:	8552                	mv	a0,s4
    80001402:	e42e                	sd	a1,8(sp)
    80001404:	0a4000ef          	jal	800014a8 <libmin_strncmp>
    80001408:	65a2                	ld	a1,8(sp)
    8000140a:	e501                	bnez	a0,80001412 <serial_output_init+0x84>
    8000140c:	01240023          	sb	s2,0(s0)
    80001410:	a031                	j	8000141c <serial_output_init+0x8e>
    80001412:	4635                	li	a2,13
    80001414:	8556                	mv	a0,s5
    80001416:	092000ef          	jal	800014a8 <libmin_strncmp>
    8000141a:	d96d                	beqz	a0,8000140c <serial_output_init+0x7e>
    8000141c:	0405                	add	s0,s0,1
    8000141e:	04a1                	add	s1,s1,8
    80001420:	fd341ee3          	bne	s0,s3,800013fc <serial_output_init+0x6e>
    80001424:	60a6                	ld	ra,72(sp)
    80001426:	6406                	ld	s0,64(sp)
    80001428:	74e2                	ld	s1,56(sp)
    8000142a:	7942                	ld	s2,48(sp)
    8000142c:	79a2                	ld	s3,40(sp)
    8000142e:	7a02                	ld	s4,32(sp)
    80001430:	6ae2                	ld	s5,24(sp)
    80001432:	6161                	add	sp,sp,80
    80001434:	8082                	ret

0000000080001436 <libmin_sfclose>:
    80001436:	4501                	li	a0,0
    80001438:	8082                	ret

000000008000143a <libmin_strcpy>:
    8000143a:	87aa                	mv	a5,a0
    8000143c:	0005c703          	lbu	a4,0(a1)
    80001440:	0585                	add	a1,a1,1
    80001442:	0785                	add	a5,a5,1
    80001444:	fee78fa3          	sb	a4,-1(a5)
    80001448:	fb75                	bnez	a4,8000143c <libmin_strcpy+0x2>
    8000144a:	8082                	ret

000000008000144c <libmin_strfits>:
    8000144c:	862e                	mv	a2,a1
    8000144e:	4581                	li	a1,0
    80001450:	a041                	j	800014d0 <libmin_strncontains>

0000000080001452 <libmin_strlen>:
    80001452:	87aa                	mv	a5,a0
    80001454:	e501                	bnez	a0,8000145c <libmin_strlen+0xa>
    80001456:	4501                	li	a0,0
    80001458:	8082                	ret
    8000145a:	0785                	add	a5,a5,1
    8000145c:	0007c703          	lbu	a4,0(a5)
    80001460:	ff6d                	bnez	a4,8000145a <libmin_strlen+0x8>
    80001462:	40a78533          	sub	a0,a5,a0
    80001466:	8082                	ret

0000000080001468 <libmin_strncat>:
    80001468:	1101                	add	sp,sp,-32
    8000146a:	e822                	sd	s0,16(sp)
    8000146c:	e426                	sd	s1,8(sp)
    8000146e:	e04a                	sd	s2,0(sp)
    80001470:	84b2                	mv	s1,a2
    80001472:	892a                	mv	s2,a0
    80001474:	ec06                	sd	ra,24(sp)
    80001476:	842e                	mv	s0,a1
    80001478:	fdbff0ef          	jal	80001452 <libmin_strlen>
    8000147c:	00a907b3          	add	a5,s2,a0
    80001480:	94be                	add	s1,s1,a5
    80001482:	00978563          	beq	a5,s1,8000148c <libmin_strncat+0x24>
    80001486:	00044703          	lbu	a4,0(s0)
    8000148a:	eb11                	bnez	a4,8000149e <libmin_strncat+0x36>
    8000148c:	00078023          	sb	zero,0(a5)
    80001490:	60e2                	ld	ra,24(sp)
    80001492:	6442                	ld	s0,16(sp)
    80001494:	64a2                	ld	s1,8(sp)
    80001496:	854a                	mv	a0,s2
    80001498:	6902                	ld	s2,0(sp)
    8000149a:	6105                	add	sp,sp,32
    8000149c:	8082                	ret
    8000149e:	0785                	add	a5,a5,1
    800014a0:	0405                	add	s0,s0,1
    800014a2:	fee78fa3          	sb	a4,-1(a5)
    800014a6:	bff1                	j	80001482 <libmin_strncat+0x1a>

00000000800014a8 <libmin_strncmp>:
    800014a8:	4701                	li	a4,0
    800014aa:	02e60163          	beq	a2,a4,800014cc <libmin_strncmp+0x24>
    800014ae:	00e507b3          	add	a5,a0,a4
    800014b2:	00e586b3          	add	a3,a1,a4
    800014b6:	0007c783          	lbu	a5,0(a5)
    800014ba:	0006c683          	lbu	a3,0(a3)
    800014be:	00d78563          	beq	a5,a3,800014c8 <libmin_strncmp+0x20>
    800014c2:	40d7853b          	subw	a0,a5,a3
    800014c6:	8082                	ret
    800014c8:	0705                	add	a4,a4,1
    800014ca:	f3e5                	bnez	a5,800014aa <libmin_strncmp+0x2>
    800014cc:	4501                	li	a0,0
    800014ce:	8082                	ret

00000000800014d0 <libmin_strncontains>:
    800014d0:	4781                	li	a5,0
    800014d2:	00c79463          	bne	a5,a2,800014da <libmin_strncontains+0xa>
    800014d6:	4501                	li	a0,0
    800014d8:	8082                	ret
    800014da:	00f50733          	add	a4,a0,a5
    800014de:	00074703          	lbu	a4,0(a4)
    800014e2:	00b70563          	beq	a4,a1,800014ec <libmin_strncontains+0x1c>
    800014e6:	db65                	beqz	a4,800014d6 <libmin_strncontains+0x6>
    800014e8:	0785                	add	a5,a5,1
    800014ea:	b7e5                	j	800014d2 <libmin_strncontains+0x2>
    800014ec:	4505                	li	a0,1
    800014ee:	8082                	ret

00000000800014f0 <libmin_strncpy>:
    800014f0:	c605                	beqz	a2,80001518 <libmin_strncpy+0x28>
    800014f2:	87aa                	mv	a5,a0
    800014f4:	0005c683          	lbu	a3,0(a1)
    800014f8:	0585                	add	a1,a1,1
    800014fa:	0785                	add	a5,a5,1
    800014fc:	fed78fa3          	sb	a3,-1(a5)
    80001500:	8732                	mv	a4,a2
    80001502:	167d                	add	a2,a2,-1
    80001504:	ea89                	bnez	a3,80001516 <libmin_strncpy+0x26>
    80001506:	973e                	add	a4,a4,a5
    80001508:	0785                	add	a5,a5,1
    8000150a:	00e79363          	bne	a5,a4,80001510 <libmin_strncpy+0x20>
    8000150e:	8082                	ret
    80001510:	fe078fa3          	sb	zero,-1(a5)
    80001514:	bfd5                	j	80001508 <libmin_strncpy+0x18>
    80001516:	fe79                	bnez	a2,800014f4 <libmin_strncpy+0x4>
    80001518:	8082                	ret

000000008000151a <libmin_success>:
    8000151a:	b53fe06f          	j	8000006c <libtarg_success>

000000008000151e <libmin_exit>:
    8000151e:	b59fe06f          	j	80000076 <libtarg_fail>

0000000080001522 <libmin_malloc>:
    80001522:	e909                	bnez	a0,80001534 <libmin_malloc+0x12>
    80001524:	4501                	li	a0,0
    80001526:	8082                	ret
    80001528:	4501                	li	a0,0
    8000152a:	60e2                	ld	ra,24(sp)
    8000152c:	6442                	ld	s0,16(sp)
    8000152e:	64a2                	ld	s1,8(sp)
    80001530:	6105                	add	sp,sp,32
    80001532:	8082                	ret
    80001534:	1101                	add	sp,sp,-32
    80001536:	e426                	sd	s1,8(sp)
    80001538:	00006497          	auipc	s1,0x6
    8000153c:	ec048493          	add	s1,s1,-320 # 800073f8 <head>
    80001540:	609c                	ld	a5,0(s1)
    80001542:	e822                	sd	s0,16(sp)
    80001544:	ec06                	sd	ra,24(sp)
    80001546:	842a                	mv	s0,a0
    80001548:	e795                	bnez	a5,80001574 <libmin_malloc+0x52>
    8000154a:	01840513          	add	a0,s0,24
    8000154e:	b33fe0ef          	jal	80000080 <libtarg_sbrk>
    80001552:	57fd                	li	a5,-1
    80001554:	fcf50ae3          	beq	a0,a5,80001528 <libmin_malloc+0x6>
    80001558:	609c                	ld	a5,0(s1)
    8000155a:	e100                	sd	s0,0(a0)
    8000155c:	00052423          	sw	zero,8(a0)
    80001560:	00053823          	sd	zero,16(a0)
    80001564:	e391                	bnez	a5,80001568 <libmin_malloc+0x46>
    80001566:	e088                	sd	a0,0(s1)
    80001568:	649c                	ld	a5,8(s1)
    8000156a:	c391                	beqz	a5,8000156e <libmin_malloc+0x4c>
    8000156c:	eb88                	sd	a0,16(a5)
    8000156e:	e488                	sd	a0,8(s1)
    80001570:	0561                	add	a0,a0,24
    80001572:	bf65                	j	8000152a <libmin_malloc+0x8>
    80001574:	4798                	lw	a4,8(a5)
    80001576:	c701                	beqz	a4,8000157e <libmin_malloc+0x5c>
    80001578:	6398                	ld	a4,0(a5)
    8000157a:	00877463          	bgeu	a4,s0,80001582 <libmin_malloc+0x60>
    8000157e:	6b9c                	ld	a5,16(a5)
    80001580:	b7e1                	j	80001548 <libmin_malloc+0x26>
    80001582:	0007a423          	sw	zero,8(a5)
    80001586:	01878513          	add	a0,a5,24
    8000158a:	b745                	j	8000152a <libmin_malloc+0x8>

000000008000158c <libmin_free>:
    8000158c:	c92d                	beqz	a0,800015fe <libmin_free+0x72>
    8000158e:	1141                	add	sp,sp,-16
    80001590:	e022                	sd	s0,0(sp)
    80001592:	842a                	mv	s0,a0
    80001594:	4501                	li	a0,0
    80001596:	e406                	sd	ra,8(sp)
    80001598:	ae9fe0ef          	jal	80000080 <libtarg_sbrk>
    8000159c:	fe843603          	ld	a2,-24(s0)
    800015a0:	00c407b3          	add	a5,s0,a2
    800015a4:	04f51663          	bne	a0,a5,800015f0 <libmin_free+0x64>
    800015a8:	00006697          	auipc	a3,0x6
    800015ac:	e5068693          	add	a3,a3,-432 # 800073f8 <head>
    800015b0:	629c                	ld	a5,0(a3)
    800015b2:	6698                	ld	a4,8(a3)
    800015b4:	4581                	li	a1,0
    800015b6:	02e79963          	bne	a5,a4,800015e8 <libmin_free+0x5c>
    800015ba:	00006797          	auipc	a5,0x6
    800015be:	e407b323          	sd	zero,-442(a5) # 80007400 <tail>
    800015c2:	00006797          	auipc	a5,0x6
    800015c6:	e207bb23          	sd	zero,-458(a5) # 800073f8 <head>
    800015ca:	6402                	ld	s0,0(sp)
    800015cc:	60a2                	ld	ra,8(sp)
    800015ce:	5521                	li	a0,-24
    800015d0:	8d11                	sub	a0,a0,a2
    800015d2:	0141                	add	sp,sp,16
    800015d4:	aadfe06f          	j	80000080 <libtarg_sbrk>
    800015d8:	6b88                	ld	a0,16(a5)
    800015da:	00a71663          	bne	a4,a0,800015e6 <libmin_free+0x5a>
    800015de:	0007b823          	sd	zero,16(a5)
    800015e2:	873e                	mv	a4,a5
    800015e4:	4585                	li	a1,1
    800015e6:	6b9c                	ld	a5,16(a5)
    800015e8:	fbe5                	bnez	a5,800015d8 <libmin_free+0x4c>
    800015ea:	d1e5                	beqz	a1,800015ca <libmin_free+0x3e>
    800015ec:	e698                	sd	a4,8(a3)
    800015ee:	bff1                	j	800015ca <libmin_free+0x3e>
    800015f0:	4785                	li	a5,1
    800015f2:	60a2                	ld	ra,8(sp)
    800015f4:	fef42823          	sw	a5,-16(s0)
    800015f8:	6402                	ld	s0,0(sp)
    800015fa:	0141                	add	sp,sp,16
    800015fc:	8082                	ret
    800015fe:	8082                	ret

0000000080001600 <libmin_calloc>:
    80001600:	1101                	add	sp,sp,-32
    80001602:	e822                	sd	s0,16(sp)
    80001604:	ec06                	sd	ra,24(sp)
    80001606:	4401                	li	s0,0
    80001608:	c10d                	beqz	a0,8000162a <libmin_calloc+0x2a>
    8000160a:	c185                	beqz	a1,8000162a <libmin_calloc+0x2a>
    8000160c:	02b537b3          	mulhu	a5,a0,a1
    80001610:	02b50633          	mul	a2,a0,a1
    80001614:	eb99                	bnez	a5,8000162a <libmin_calloc+0x2a>
    80001616:	8532                	mv	a0,a2
    80001618:	e432                	sd	a2,8(sp)
    8000161a:	f09ff0ef          	jal	80001522 <libmin_malloc>
    8000161e:	842a                	mv	s0,a0
    80001620:	c509                	beqz	a0,8000162a <libmin_calloc+0x2a>
    80001622:	6622                	ld	a2,8(sp)
    80001624:	4581                	li	a1,0
    80001626:	d9ffe0ef          	jal	800003c4 <libmin_memset>
    8000162a:	60e2                	ld	ra,24(sp)
    8000162c:	8522                	mv	a0,s0
    8000162e:	6442                	ld	s0,16(sp)
    80001630:	6105                	add	sp,sp,32
    80001632:	8082                	ret

0000000080001634 <libmin_realloc>:
    80001634:	1101                	add	sp,sp,-32
    80001636:	e822                	sd	s0,16(sp)
    80001638:	ec06                	sd	ra,24(sp)
    8000163a:	842a                	mv	s0,a0
    8000163c:	e426                	sd	s1,8(sp)
    8000163e:	852e                	mv	a0,a1
    80001640:	c011                	beqz	s0,80001644 <libmin_realloc+0x10>
    80001642:	e591                	bnez	a1,8000164e <libmin_realloc+0x1a>
    80001644:	6442                	ld	s0,16(sp)
    80001646:	60e2                	ld	ra,24(sp)
    80001648:	64a2                	ld	s1,8(sp)
    8000164a:	6105                	add	sp,sp,32
    8000164c:	bdd9                	j	80001522 <libmin_malloc>
    8000164e:	fe843783          	ld	a5,-24(s0)
    80001652:	00b7f763          	bgeu	a5,a1,80001660 <libmin_realloc+0x2c>
    80001656:	ecdff0ef          	jal	80001522 <libmin_malloc>
    8000165a:	84aa                	mv	s1,a0
    8000165c:	e901                	bnez	a0,8000166c <libmin_realloc+0x38>
    8000165e:	8426                	mv	s0,s1
    80001660:	60e2                	ld	ra,24(sp)
    80001662:	8522                	mv	a0,s0
    80001664:	6442                	ld	s0,16(sp)
    80001666:	64a2                	ld	s1,8(sp)
    80001668:	6105                	add	sp,sp,32
    8000166a:	8082                	ret
    8000166c:	fe843603          	ld	a2,-24(s0)
    80001670:	85a2                	mv	a1,s0
    80001672:	d37fe0ef          	jal	800003a8 <libmin_memcpy>
    80001676:	8522                	mv	a0,s0
    80001678:	f15ff0ef          	jal	8000158c <libmin_free>
    8000167c:	b7cd                	j	8000165e <libmin_realloc+0x2a>
	...

0000000080001680 <__adddf3>:
    80001680:	fff00693          	li	a3,-1
    80001684:	fe010113          	add	sp,sp,-32
    80001688:	00c6d693          	srl	a3,a3,0xc
    8000168c:	0345d613          	srl	a2,a1,0x34
    80001690:	03455713          	srl	a4,a0,0x34
    80001694:	00a6f833          	and	a6,a3,a0
    80001698:	00813823          	sd	s0,16(sp)
    8000169c:	00b6f6b3          	and	a3,a3,a1
    800016a0:	01213023          	sd	s2,0(sp)
    800016a4:	7ff67613          	and	a2,a2,2047
    800016a8:	7ff77913          	and	s2,a4,2047
    800016ac:	00113c23          	sd	ra,24(sp)
    800016b0:	00913423          	sd	s1,8(sp)
    800016b4:	03f55413          	srl	s0,a0,0x3f
    800016b8:	03f5d593          	srl	a1,a1,0x3f
    800016bc:	00369793          	sll	a5,a3,0x3
    800016c0:	00381813          	sll	a6,a6,0x3
    800016c4:	40c906bb          	subw	a3,s2,a2
    800016c8:	1ab41063          	bne	s0,a1,80001868 <__adddf3+0x1e8>
    800016cc:	0006859b          	sext.w	a1,a3
    800016d0:	08b05e63          	blez	a1,8000176c <__adddf3+0xec>
    800016d4:	04061c63          	bnez	a2,8000172c <__adddf3+0xac>
    800016d8:	04078663          	beqz	a5,80001724 <__adddf3+0xa4>
    800016dc:	fff6859b          	addw	a1,a3,-1
    800016e0:	02059e63          	bnez	a1,8000171c <__adddf3+0x9c>
    800016e4:	010787b3          	add	a5,a5,a6
    800016e8:	00879713          	sll	a4,a5,0x8
    800016ec:	12075863          	bgez	a4,8000181c <__adddf3+0x19c>
    800016f0:	00190913          	add	s2,s2,1
    800016f4:	7ff00713          	li	a4,2047
    800016f8:	3ce90263          	beq	s2,a4,80001abc <__adddf3+0x43c>
    800016fc:	1ff00713          	li	a4,511
    80001700:	03671713          	sll	a4,a4,0x36
    80001704:	0017f693          	and	a3,a5,1
    80001708:	fff70713          	add	a4,a4,-1
    8000170c:	0017d793          	srl	a5,a5,0x1
    80001710:	00e7f7b3          	and	a5,a5,a4
    80001714:	00d7e7b3          	or	a5,a5,a3
    80001718:	1040006f          	j	8000181c <__adddf3+0x19c>
    8000171c:	7ff00713          	li	a4,2047
    80001720:	02e91063          	bne	s2,a4,80001740 <__adddf3+0xc0>
    80001724:	00080793          	mv	a5,a6
    80001728:	0f40006f          	j	8000181c <__adddf3+0x19c>
    8000172c:	7ff00713          	li	a4,2047
    80001730:	fee90ae3          	beq	s2,a4,80001724 <__adddf3+0xa4>
    80001734:	00100713          	li	a4,1
    80001738:	03771713          	sll	a4,a4,0x37
    8000173c:	00e7e7b3          	or	a5,a5,a4
    80001740:	03800693          	li	a3,56
    80001744:	00100713          	li	a4,1
    80001748:	00b6ce63          	blt	a3,a1,80001764 <__adddf3+0xe4>
    8000174c:	04000693          	li	a3,64
    80001750:	40b686bb          	subw	a3,a3,a1
    80001754:	00d796b3          	sll	a3,a5,a3
    80001758:	00b7d733          	srl	a4,a5,a1
    8000175c:	00d036b3          	snez	a3,a3
    80001760:	00d76733          	or	a4,a4,a3
    80001764:	010707b3          	add	a5,a4,a6
    80001768:	f81ff06f          	j	800016e8 <__adddf3+0x68>
    8000176c:	06058c63          	beqz	a1,800017e4 <__adddf3+0x164>
    80001770:	02091863          	bnez	s2,800017a0 <__adddf3+0x120>
    80001774:	32080e63          	beqz	a6,80001ab0 <__adddf3+0x430>
    80001778:	fff6c693          	not	a3,a3
    8000177c:	0006869b          	sext.w	a3,a3
    80001780:	00069863          	bnez	a3,80001790 <__adddf3+0x110>
    80001784:	010787b3          	add	a5,a5,a6
    80001788:	00060913          	mv	s2,a2
    8000178c:	f5dff06f          	j	800016e8 <__adddf3+0x68>
    80001790:	7ff00713          	li	a4,2047
    80001794:	02e61263          	bne	a2,a4,800017b8 <__adddf3+0x138>
    80001798:	7ff00913          	li	s2,2047
    8000179c:	0800006f          	j	8000181c <__adddf3+0x19c>
    800017a0:	7ff00713          	li	a4,2047
    800017a4:	fee60ae3          	beq	a2,a4,80001798 <__adddf3+0x118>
    800017a8:	00100713          	li	a4,1
    800017ac:	03771713          	sll	a4,a4,0x37
    800017b0:	40d006bb          	negw	a3,a3
    800017b4:	00e86833          	or	a6,a6,a4
    800017b8:	03800593          	li	a1,56
    800017bc:	00100713          	li	a4,1
    800017c0:	00d5ce63          	blt	a1,a3,800017dc <__adddf3+0x15c>
    800017c4:	04000713          	li	a4,64
    800017c8:	40d7073b          	subw	a4,a4,a3
    800017cc:	00e81733          	sll	a4,a6,a4
    800017d0:	00d855b3          	srl	a1,a6,a3
    800017d4:	00e03733          	snez	a4,a4
    800017d8:	00e5e733          	or	a4,a1,a4
    800017dc:	00e787b3          	add	a5,a5,a4
    800017e0:	fa9ff06f          	j	80001788 <__adddf3+0x108>
    800017e4:	00190713          	add	a4,s2,1
    800017e8:	7fe77693          	and	a3,a4,2046
    800017ec:	06069263          	bnez	a3,80001850 <__adddf3+0x1d0>
    800017f0:	04091463          	bnez	s2,80001838 <__adddf3+0x1b8>
    800017f4:	02080463          	beqz	a6,8000181c <__adddf3+0x19c>
    800017f8:	f20786e3          	beqz	a5,80001724 <__adddf3+0xa4>
    800017fc:	010787b3          	add	a5,a5,a6
    80001800:	00879713          	sll	a4,a5,0x8
    80001804:	00075c63          	bgez	a4,8000181c <__adddf3+0x19c>
    80001808:	fff00713          	li	a4,-1
    8000180c:	03771713          	sll	a4,a4,0x37
    80001810:	fff70713          	add	a4,a4,-1
    80001814:	00e7f7b3          	and	a5,a5,a4
    80001818:	00100913          	li	s2,1
    8000181c:	0077f713          	and	a4,a5,7
    80001820:	18070e63          	beqz	a4,800019bc <__adddf3+0x33c>
    80001824:	00f7f713          	and	a4,a5,15
    80001828:	00400693          	li	a3,4
    8000182c:	18d70863          	beq	a4,a3,800019bc <__adddf3+0x33c>
    80001830:	00478793          	add	a5,a5,4
    80001834:	1880006f          	j	800019bc <__adddf3+0x33c>
    80001838:	f60800e3          	beqz	a6,80001798 <__adddf3+0x118>
    8000183c:	28078e63          	beqz	a5,80001ad8 <__adddf3+0x458>
    80001840:	00100793          	li	a5,1
    80001844:	03679793          	sll	a5,a5,0x36
    80001848:	7ff00913          	li	s2,2047
    8000184c:	12c0006f          	j	80001978 <__adddf3+0x2f8>
    80001850:	7ff00693          	li	a3,2047
    80001854:	26d70263          	beq	a4,a3,80001ab8 <__adddf3+0x438>
    80001858:	00f807b3          	add	a5,a6,a5
    8000185c:	0017d793          	srl	a5,a5,0x1
    80001860:	00070913          	mv	s2,a4
    80001864:	fb9ff06f          	j	8000181c <__adddf3+0x19c>
    80001868:	0006851b          	sext.w	a0,a3
    8000186c:	06a05c63          	blez	a0,800018e4 <__adddf3+0x264>
    80001870:	04061e63          	bnez	a2,800018cc <__adddf3+0x24c>
    80001874:	ea0788e3          	beqz	a5,80001724 <__adddf3+0xa4>
    80001878:	fff6851b          	addw	a0,a3,-1
    8000187c:	00051e63          	bnez	a0,80001898 <__adddf3+0x218>
    80001880:	40f807b3          	sub	a5,a6,a5
    80001884:	00879713          	sll	a4,a5,0x8
    80001888:	f8075ae3          	bgez	a4,8000181c <__adddf3+0x19c>
    8000188c:	00979493          	sll	s1,a5,0x9
    80001890:	0094d493          	srl	s1,s1,0x9
    80001894:	1b80006f          	j	80001a4c <__adddf3+0x3cc>
    80001898:	7ff00713          	li	a4,2047
    8000189c:	e8e904e3          	beq	s2,a4,80001724 <__adddf3+0xa4>
    800018a0:	03800693          	li	a3,56
    800018a4:	00100713          	li	a4,1
    800018a8:	00a6ce63          	blt	a3,a0,800018c4 <__adddf3+0x244>
    800018ac:	04000693          	li	a3,64
    800018b0:	40a686bb          	subw	a3,a3,a0
    800018b4:	00d796b3          	sll	a3,a5,a3
    800018b8:	00a7d733          	srl	a4,a5,a0
    800018bc:	00d036b3          	snez	a3,a3
    800018c0:	00d76733          	or	a4,a4,a3
    800018c4:	40e807b3          	sub	a5,a6,a4
    800018c8:	fbdff06f          	j	80001884 <__adddf3+0x204>
    800018cc:	7ff00713          	li	a4,2047
    800018d0:	e4e90ae3          	beq	s2,a4,80001724 <__adddf3+0xa4>
    800018d4:	00100713          	li	a4,1
    800018d8:	03771713          	sll	a4,a4,0x37
    800018dc:	00e7e7b3          	or	a5,a5,a4
    800018e0:	fc1ff06f          	j	800018a0 <__adddf3+0x220>
    800018e4:	06050e63          	beqz	a0,80001960 <__adddf3+0x2e0>
    800018e8:	02091a63          	bnez	s2,8000191c <__adddf3+0x29c>
    800018ec:	1c080c63          	beqz	a6,80001ac4 <__adddf3+0x444>
    800018f0:	fff6c693          	not	a3,a3
    800018f4:	0006869b          	sext.w	a3,a3
    800018f8:	00069a63          	bnez	a3,8000190c <__adddf3+0x28c>
    800018fc:	410787b3          	sub	a5,a5,a6
    80001900:	00060913          	mv	s2,a2
    80001904:	00058413          	mv	s0,a1
    80001908:	f7dff06f          	j	80001884 <__adddf3+0x204>
    8000190c:	7ff00713          	li	a4,2047
    80001910:	02e61263          	bne	a2,a4,80001934 <__adddf3+0x2b4>
    80001914:	7ff00913          	li	s2,2047
    80001918:	1b00006f          	j	80001ac8 <__adddf3+0x448>
    8000191c:	7ff00713          	li	a4,2047
    80001920:	fee60ae3          	beq	a2,a4,80001914 <__adddf3+0x294>
    80001924:	00100713          	li	a4,1
    80001928:	03771713          	sll	a4,a4,0x37
    8000192c:	40d006bb          	negw	a3,a3
    80001930:	00e86833          	or	a6,a6,a4
    80001934:	03800513          	li	a0,56
    80001938:	00100713          	li	a4,1
    8000193c:	00d54e63          	blt	a0,a3,80001958 <__adddf3+0x2d8>
    80001940:	04000713          	li	a4,64
    80001944:	40d7073b          	subw	a4,a4,a3
    80001948:	00e81733          	sll	a4,a6,a4
    8000194c:	00d85533          	srl	a0,a6,a3
    80001950:	00e03733          	snez	a4,a4
    80001954:	00e56733          	or	a4,a0,a4
    80001958:	40e787b3          	sub	a5,a5,a4
    8000195c:	fa5ff06f          	j	80001900 <__adddf3+0x280>
    80001960:	00190713          	add	a4,s2,1
    80001964:	7fe77713          	and	a4,a4,2046
    80001968:	0c071863          	bnez	a4,80001a38 <__adddf3+0x3b8>
    8000196c:	02091c63          	bnez	s2,800019a4 <__adddf3+0x324>
    80001970:	00081863          	bnez	a6,80001980 <__adddf3+0x300>
    80001974:	14079a63          	bnez	a5,80001ac8 <__adddf3+0x448>
    80001978:	00000413          	li	s0,0
    8000197c:	0400006f          	j	800019bc <__adddf3+0x33c>
    80001980:	da0782e3          	beqz	a5,80001724 <__adddf3+0xa4>
    80001984:	40f80733          	sub	a4,a6,a5
    80001988:	00871693          	sll	a3,a4,0x8
    8000198c:	410787b3          	sub	a5,a5,a6
    80001990:	1206cc63          	bltz	a3,80001ac8 <__adddf3+0x448>
    80001994:	00070793          	mv	a5,a4
    80001998:	e80712e3          	bnez	a4,8000181c <__adddf3+0x19c>
    8000199c:	00000793          	li	a5,0
    800019a0:	fd9ff06f          	j	80001978 <__adddf3+0x2f8>
    800019a4:	e8081ce3          	bnez	a6,8000183c <__adddf3+0x1bc>
    800019a8:	12079463          	bnez	a5,80001ad0 <__adddf3+0x450>
    800019ac:	00100793          	li	a5,1
    800019b0:	00000413          	li	s0,0
    800019b4:	03679793          	sll	a5,a5,0x36
    800019b8:	7ff00913          	li	s2,2047
    800019bc:	00879713          	sll	a4,a5,0x8
    800019c0:	02075063          	bgez	a4,800019e0 <__adddf3+0x360>
    800019c4:	00190913          	add	s2,s2,1
    800019c8:	7ff00713          	li	a4,2047
    800019cc:	10e90a63          	beq	s2,a4,80001ae0 <__adddf3+0x460>
    800019d0:	fff00713          	li	a4,-1
    800019d4:	03771713          	sll	a4,a4,0x37
    800019d8:	fff70713          	add	a4,a4,-1
    800019dc:	00e7f7b3          	and	a5,a5,a4
    800019e0:	7ff00713          	li	a4,2047
    800019e4:	0037d793          	srl	a5,a5,0x3
    800019e8:	00e91a63          	bne	s2,a4,800019fc <__adddf3+0x37c>
    800019ec:	00078863          	beqz	a5,800019fc <__adddf3+0x37c>
    800019f0:	00100793          	li	a5,1
    800019f4:	03379793          	sll	a5,a5,0x33
    800019f8:	00000413          	li	s0,0
    800019fc:	7ff00693          	li	a3,2047
    80001a00:	01813083          	ld	ra,24(sp)
    80001a04:	03491713          	sll	a4,s2,0x34
    80001a08:	03f41513          	sll	a0,s0,0x3f
    80001a0c:	03469693          	sll	a3,a3,0x34
    80001a10:	01013403          	ld	s0,16(sp)
    80001a14:	00c79793          	sll	a5,a5,0xc
    80001a18:	00d77733          	and	a4,a4,a3
    80001a1c:	00c7d793          	srl	a5,a5,0xc
    80001a20:	00f767b3          	or	a5,a4,a5
    80001a24:	00813483          	ld	s1,8(sp)
    80001a28:	00013903          	ld	s2,0(sp)
    80001a2c:	00a7e533          	or	a0,a5,a0
    80001a30:	02010113          	add	sp,sp,32
    80001a34:	00008067          	ret
    80001a38:	40f804b3          	sub	s1,a6,a5
    80001a3c:	00849713          	sll	a4,s1,0x8
    80001a40:	04075463          	bgez	a4,80001a88 <__adddf3+0x408>
    80001a44:	410784b3          	sub	s1,a5,a6
    80001a48:	00058413          	mv	s0,a1
    80001a4c:	00048513          	mv	a0,s1
    80001a50:	02c020ef          	jal	80003a7c <__clzdi2>
    80001a54:	ff85079b          	addw	a5,a0,-8
    80001a58:	00f494b3          	sll	s1,s1,a5
    80001a5c:	0327ce63          	blt	a5,s2,80001a98 <__adddf3+0x418>
    80001a60:	4127853b          	subw	a0,a5,s2
    80001a64:	0015051b          	addw	a0,a0,1
    80001a68:	04000713          	li	a4,64
    80001a6c:	40a7073b          	subw	a4,a4,a0
    80001a70:	00a4d7b3          	srl	a5,s1,a0
    80001a74:	00e494b3          	sll	s1,s1,a4
    80001a78:	009034b3          	snez	s1,s1
    80001a7c:	0097e7b3          	or	a5,a5,s1
    80001a80:	00000913          	li	s2,0
    80001a84:	d99ff06f          	j	8000181c <__adddf3+0x19c>
    80001a88:	fc0492e3          	bnez	s1,80001a4c <__adddf3+0x3cc>
    80001a8c:	00000793          	li	a5,0
    80001a90:	00000913          	li	s2,0
    80001a94:	ee5ff06f          	j	80001978 <__adddf3+0x2f8>
    80001a98:	40f90933          	sub	s2,s2,a5
    80001a9c:	fff00793          	li	a5,-1
    80001aa0:	03779793          	sll	a5,a5,0x37
    80001aa4:	fff78793          	add	a5,a5,-1
    80001aa8:	00f4f7b3          	and	a5,s1,a5
    80001aac:	d71ff06f          	j	8000181c <__adddf3+0x19c>
    80001ab0:	00060913          	mv	s2,a2
    80001ab4:	d69ff06f          	j	8000181c <__adddf3+0x19c>
    80001ab8:	7ff00913          	li	s2,2047
    80001abc:	00000793          	li	a5,0
    80001ac0:	efdff06f          	j	800019bc <__adddf3+0x33c>
    80001ac4:	00060913          	mv	s2,a2
    80001ac8:	00058413          	mv	s0,a1
    80001acc:	d51ff06f          	j	8000181c <__adddf3+0x19c>
    80001ad0:	00058413          	mv	s0,a1
    80001ad4:	cc5ff06f          	j	80001798 <__adddf3+0x118>
    80001ad8:	00080793          	mv	a5,a6
    80001adc:	cbdff06f          	j	80001798 <__adddf3+0x118>
    80001ae0:	00000793          	li	a5,0
    80001ae4:	efdff06f          	j	800019e0 <__adddf3+0x360>

0000000080001ae8 <__eqdf2>:
    80001ae8:	fff00793          	li	a5,-1
    80001aec:	03455613          	srl	a2,a0,0x34
    80001af0:	00c7d793          	srl	a5,a5,0xc
    80001af4:	0345d813          	srl	a6,a1,0x34
    80001af8:	7ff67613          	and	a2,a2,2047
    80001afc:	7ff00693          	li	a3,2047
    80001b00:	00a7f8b3          	and	a7,a5,a0
    80001b04:	03f55713          	srl	a4,a0,0x3f
    80001b08:	00b7f7b3          	and	a5,a5,a1
    80001b0c:	7ff87813          	and	a6,a6,2047
    80001b10:	03f5d593          	srl	a1,a1,0x3f
    80001b14:	00d61e63          	bne	a2,a3,80001b30 <__eqdf2+0x48>
    80001b18:	00100513          	li	a0,1
    80001b1c:	04089663          	bnez	a7,80001b68 <__eqdf2+0x80>
    80001b20:	00100693          	li	a3,1
    80001b24:	02c81863          	bne	a6,a2,80001b54 <__eqdf2+0x6c>
    80001b28:	00078c63          	beqz	a5,80001b40 <__eqdf2+0x58>
    80001b2c:	00008067          	ret
    80001b30:	02d80663          	beq	a6,a3,80001b5c <__eqdf2+0x74>
    80001b34:	00100693          	li	a3,1
    80001b38:	01061e63          	bne	a2,a6,80001b54 <__eqdf2+0x6c>
    80001b3c:	00f89c63          	bne	a7,a5,80001b54 <__eqdf2+0x6c>
    80001b40:	00000693          	li	a3,0
    80001b44:	00b70863          	beq	a4,a1,80001b54 <__eqdf2+0x6c>
    80001b48:	00100693          	li	a3,1
    80001b4c:	00061463          	bnez	a2,80001b54 <__eqdf2+0x6c>
    80001b50:	011036b3          	snez	a3,a7
    80001b54:	00068513          	mv	a0,a3
    80001b58:	00008067          	ret
    80001b5c:	00100513          	li	a0,1
    80001b60:	00100693          	li	a3,1
    80001b64:	fe0788e3          	beqz	a5,80001b54 <__eqdf2+0x6c>
    80001b68:	00008067          	ret

0000000080001b6c <__gedf2>:
    80001b6c:	fff00793          	li	a5,-1
    80001b70:	00c7d793          	srl	a5,a5,0xc
    80001b74:	03455693          	srl	a3,a0,0x34
    80001b78:	00a7f633          	and	a2,a5,a0
    80001b7c:	03f55713          	srl	a4,a0,0x3f
    80001b80:	7ff6f693          	and	a3,a3,2047
    80001b84:	0345d513          	srl	a0,a1,0x34
    80001b88:	7ff00813          	li	a6,2047
    80001b8c:	00b7f7b3          	and	a5,a5,a1
    80001b90:	7ff57513          	and	a0,a0,2047
    80001b94:	03f5d593          	srl	a1,a1,0x3f
    80001b98:	01069463          	bne	a3,a6,80001ba0 <__gedf2+0x34>
    80001b9c:	04061263          	bnez	a2,80001be0 <__gedf2+0x74>
    80001ba0:	7ff00813          	li	a6,2047
    80001ba4:	01051463          	bne	a0,a6,80001bac <__gedf2+0x40>
    80001ba8:	02079c63          	bnez	a5,80001be0 <__gedf2+0x74>
    80001bac:	04069a63          	bnez	a3,80001c00 <__gedf2+0x94>
    80001bb0:	02051c63          	bnez	a0,80001be8 <__gedf2+0x7c>
    80001bb4:	04061863          	bnez	a2,80001c04 <__gedf2+0x98>
    80001bb8:	04078263          	beqz	a5,80001bfc <__gedf2+0x90>
    80001bbc:	00100513          	li	a0,1
    80001bc0:	02059e63          	bnez	a1,80001bfc <__gedf2+0x90>
    80001bc4:	fff00513          	li	a0,-1
    80001bc8:	00008067          	ret
    80001bcc:	fea6c8e3          	blt	a3,a0,80001bbc <__gedf2+0x50>
    80001bd0:	02c7e263          	bltu	a5,a2,80001bf4 <__gedf2+0x88>
    80001bd4:	00000513          	li	a0,0
    80001bd8:	02f67263          	bgeu	a2,a5,80001bfc <__gedf2+0x90>
    80001bdc:	fe1ff06f          	j	80001bbc <__gedf2+0x50>
    80001be0:	ffe00513          	li	a0,-2
    80001be4:	00008067          	ret
    80001be8:	fc060ae3          	beqz	a2,80001bbc <__gedf2+0x50>
    80001bec:	00e59e63          	bne	a1,a4,80001c08 <__gedf2+0x9c>
    80001bf0:	fcd55ee3          	bge	a0,a3,80001bcc <__gedf2+0x60>
    80001bf4:	fff00513          	li	a0,-1
    80001bf8:	00058c63          	beqz	a1,80001c10 <__gedf2+0xa4>
    80001bfc:	00008067          	ret
    80001c00:	fe0516e3          	bnez	a0,80001bec <__gedf2+0x80>
    80001c04:	fe0794e3          	bnez	a5,80001bec <__gedf2+0x80>
    80001c08:	fff00513          	li	a0,-1
    80001c0c:	fe0718e3          	bnez	a4,80001bfc <__gedf2+0x90>
    80001c10:	00100513          	li	a0,1
    80001c14:	00008067          	ret

0000000080001c18 <__ledf2>:
    80001c18:	fff00793          	li	a5,-1
    80001c1c:	00c7d793          	srl	a5,a5,0xc
    80001c20:	03455693          	srl	a3,a0,0x34
    80001c24:	00a7f633          	and	a2,a5,a0
    80001c28:	03f55713          	srl	a4,a0,0x3f
    80001c2c:	7ff6f693          	and	a3,a3,2047
    80001c30:	0345d513          	srl	a0,a1,0x34
    80001c34:	7ff00813          	li	a6,2047
    80001c38:	00b7f7b3          	and	a5,a5,a1
    80001c3c:	7ff57513          	and	a0,a0,2047
    80001c40:	03f5d593          	srl	a1,a1,0x3f
    80001c44:	01069463          	bne	a3,a6,80001c4c <__ledf2+0x34>
    80001c48:	04061263          	bnez	a2,80001c8c <__ledf2+0x74>
    80001c4c:	7ff00813          	li	a6,2047
    80001c50:	01051463          	bne	a0,a6,80001c58 <__ledf2+0x40>
    80001c54:	02079c63          	bnez	a5,80001c8c <__ledf2+0x74>
    80001c58:	04069a63          	bnez	a3,80001cac <__ledf2+0x94>
    80001c5c:	02051c63          	bnez	a0,80001c94 <__ledf2+0x7c>
    80001c60:	04061863          	bnez	a2,80001cb0 <__ledf2+0x98>
    80001c64:	04078263          	beqz	a5,80001ca8 <__ledf2+0x90>
    80001c68:	00100513          	li	a0,1
    80001c6c:	02059e63          	bnez	a1,80001ca8 <__ledf2+0x90>
    80001c70:	fff00513          	li	a0,-1
    80001c74:	00008067          	ret
    80001c78:	fea6c8e3          	blt	a3,a0,80001c68 <__ledf2+0x50>
    80001c7c:	02c7e263          	bltu	a5,a2,80001ca0 <__ledf2+0x88>
    80001c80:	00000513          	li	a0,0
    80001c84:	02f67263          	bgeu	a2,a5,80001ca8 <__ledf2+0x90>
    80001c88:	fe1ff06f          	j	80001c68 <__ledf2+0x50>
    80001c8c:	00200513          	li	a0,2
    80001c90:	00008067          	ret
    80001c94:	fc060ae3          	beqz	a2,80001c68 <__ledf2+0x50>
    80001c98:	00e59e63          	bne	a1,a4,80001cb4 <__ledf2+0x9c>
    80001c9c:	fcd55ee3          	bge	a0,a3,80001c78 <__ledf2+0x60>
    80001ca0:	fff00513          	li	a0,-1
    80001ca4:	00058c63          	beqz	a1,80001cbc <__ledf2+0xa4>
    80001ca8:	00008067          	ret
    80001cac:	fe0516e3          	bnez	a0,80001c98 <__ledf2+0x80>
    80001cb0:	fe0794e3          	bnez	a5,80001c98 <__ledf2+0x80>
    80001cb4:	fff00513          	li	a0,-1
    80001cb8:	fe0718e3          	bnez	a4,80001ca8 <__ledf2+0x90>
    80001cbc:	00100513          	li	a0,1
    80001cc0:	00008067          	ret

0000000080001cc4 <__muldf3>:
    80001cc4:	fc010113          	add	sp,sp,-64
    80001cc8:	03213023          	sd	s2,32(sp)
    80001ccc:	03455913          	srl	s2,a0,0x34
    80001cd0:	02913423          	sd	s1,40(sp)
    80001cd4:	01313c23          	sd	s3,24(sp)
    80001cd8:	01513423          	sd	s5,8(sp)
    80001cdc:	00c51493          	sll	s1,a0,0xc
    80001ce0:	02113c23          	sd	ra,56(sp)
    80001ce4:	02813823          	sd	s0,48(sp)
    80001ce8:	01413823          	sd	s4,16(sp)
    80001cec:	7ff97913          	and	s2,s2,2047
    80001cf0:	00058a93          	mv	s5,a1
    80001cf4:	00c4d493          	srl	s1,s1,0xc
    80001cf8:	03f55993          	srl	s3,a0,0x3f
    80001cfc:	12090063          	beqz	s2,80001e1c <__muldf3+0x158>
    80001d00:	7ff00793          	li	a5,2047
    80001d04:	12f90e63          	beq	s2,a5,80001e40 <__muldf3+0x17c>
    80001d08:	00100793          	li	a5,1
    80001d0c:	00349493          	sll	s1,s1,0x3
    80001d10:	03779793          	sll	a5,a5,0x37
    80001d14:	00f4e4b3          	or	s1,s1,a5
    80001d18:	c0190913          	add	s2,s2,-1023
    80001d1c:	00000a13          	li	s4,0
    80001d20:	034ad793          	srl	a5,s5,0x34
    80001d24:	00ca9413          	sll	s0,s5,0xc
    80001d28:	7ff7f793          	and	a5,a5,2047
    80001d2c:	00c45413          	srl	s0,s0,0xc
    80001d30:	03fada93          	srl	s5,s5,0x3f
    80001d34:	12078663          	beqz	a5,80001e60 <__muldf3+0x19c>
    80001d38:	7ff00713          	li	a4,2047
    80001d3c:	14e78463          	beq	a5,a4,80001e84 <__muldf3+0x1c0>
    80001d40:	00100713          	li	a4,1
    80001d44:	00341413          	sll	s0,s0,0x3
    80001d48:	03771713          	sll	a4,a4,0x37
    80001d4c:	00e46433          	or	s0,s0,a4
    80001d50:	c0178793          	add	a5,a5,-1023
    80001d54:	00000713          	li	a4,0
    80001d58:	00f90933          	add	s2,s2,a5
    80001d5c:	002a1793          	sll	a5,s4,0x2
    80001d60:	00e7e7b3          	or	a5,a5,a4
    80001d64:	00a00693          	li	a3,10
    80001d68:	00190513          	add	a0,s2,1
    80001d6c:	1ef6cc63          	blt	a3,a5,80001f64 <__muldf3+0x2a0>
    80001d70:	00200693          	li	a3,2
    80001d74:	0159c9b3          	xor	s3,s3,s5
    80001d78:	12f6c663          	blt	a3,a5,80001ea4 <__muldf3+0x1e0>
    80001d7c:	fff78793          	add	a5,a5,-1
    80001d80:	00100693          	li	a3,1
    80001d84:	14f6f263          	bgeu	a3,a5,80001ec8 <__muldf3+0x204>
    80001d88:	fff00613          	li	a2,-1
    80001d8c:	02065613          	srl	a2,a2,0x20
    80001d90:	0204d693          	srl	a3,s1,0x20
    80001d94:	02045793          	srl	a5,s0,0x20
    80001d98:	00c4f4b3          	and	s1,s1,a2
    80001d9c:	00c47433          	and	s0,s0,a2
    80001da0:	029405b3          	mul	a1,s0,s1
    80001da4:	02868433          	mul	s0,a3,s0
    80001da8:	02f686b3          	mul	a3,a3,a5
    80001dac:	029787b3          	mul	a5,a5,s1
    80001db0:	00878733          	add	a4,a5,s0
    80001db4:	0205d793          	srl	a5,a1,0x20
    80001db8:	00e787b3          	add	a5,a5,a4
    80001dbc:	0087f863          	bgeu	a5,s0,80001dcc <__muldf3+0x108>
    80001dc0:	00100713          	li	a4,1
    80001dc4:	02071713          	sll	a4,a4,0x20
    80001dc8:	00e686b3          	add	a3,a3,a4
    80001dcc:	00c7f733          	and	a4,a5,a2
    80001dd0:	02071713          	sll	a4,a4,0x20
    80001dd4:	00c5f5b3          	and	a1,a1,a2
    80001dd8:	00b70733          	add	a4,a4,a1
    80001ddc:	0207d793          	srl	a5,a5,0x20
    80001de0:	00971413          	sll	s0,a4,0x9
    80001de4:	00d787b3          	add	a5,a5,a3
    80001de8:	03775713          	srl	a4,a4,0x37
    80001dec:	00979793          	sll	a5,a5,0x9
    80001df0:	00803433          	snez	s0,s0
    80001df4:	00e46433          	or	s0,s0,a4
    80001df8:	00779713          	sll	a4,a5,0x7
    80001dfc:	0087e433          	or	s0,a5,s0
    80001e00:	00075a63          	bgez	a4,80001e14 <__muldf3+0x150>
    80001e04:	00145793          	srl	a5,s0,0x1
    80001e08:	00147413          	and	s0,s0,1
    80001e0c:	0087e433          	or	s0,a5,s0
    80001e10:	00050913          	mv	s2,a0
    80001e14:	00090513          	mv	a0,s2
    80001e18:	0c80006f          	j	80001ee0 <__muldf3+0x21c>
    80001e1c:	02048c63          	beqz	s1,80001e54 <__muldf3+0x190>
    80001e20:	00048513          	mv	a0,s1
    80001e24:	459010ef          	jal	80003a7c <__clzdi2>
    80001e28:	0005079b          	sext.w	a5,a0
    80001e2c:	c0d00913          	li	s2,-1011
    80001e30:	ff85051b          	addw	a0,a0,-8
    80001e34:	00a494b3          	sll	s1,s1,a0
    80001e38:	40f90933          	sub	s2,s2,a5
    80001e3c:	ee1ff06f          	j	80001d1c <__muldf3+0x58>
    80001e40:	7ff00913          	li	s2,2047
    80001e44:	00200a13          	li	s4,2
    80001e48:	ec048ce3          	beqz	s1,80001d20 <__muldf3+0x5c>
    80001e4c:	00300a13          	li	s4,3
    80001e50:	ed1ff06f          	j	80001d20 <__muldf3+0x5c>
    80001e54:	00000913          	li	s2,0
    80001e58:	00100a13          	li	s4,1
    80001e5c:	ec5ff06f          	j	80001d20 <__muldf3+0x5c>
    80001e60:	02040c63          	beqz	s0,80001e98 <__muldf3+0x1d4>
    80001e64:	00040513          	mv	a0,s0
    80001e68:	415010ef          	jal	80003a7c <__clzdi2>
    80001e6c:	0005071b          	sext.w	a4,a0
    80001e70:	c0d00793          	li	a5,-1011
    80001e74:	ff85051b          	addw	a0,a0,-8
    80001e78:	00a41433          	sll	s0,s0,a0
    80001e7c:	40e787b3          	sub	a5,a5,a4
    80001e80:	ed5ff06f          	j	80001d54 <__muldf3+0x90>
    80001e84:	7ff00793          	li	a5,2047
    80001e88:	00200713          	li	a4,2
    80001e8c:	ec0406e3          	beqz	s0,80001d58 <__muldf3+0x94>
    80001e90:	00300713          	li	a4,3
    80001e94:	ec5ff06f          	j	80001d58 <__muldf3+0x94>
    80001e98:	00000793          	li	a5,0
    80001e9c:	00100713          	li	a4,1
    80001ea0:	eb9ff06f          	j	80001d58 <__muldf3+0x94>
    80001ea4:	00100693          	li	a3,1
    80001ea8:	00f697b3          	sll	a5,a3,a5
    80001eac:	5307f693          	and	a3,a5,1328
    80001eb0:	0c069263          	bnez	a3,80001f74 <__muldf3+0x2b0>
    80001eb4:	2407f693          	and	a3,a5,576
    80001eb8:	12069663          	bnez	a3,80001fe4 <__muldf3+0x320>
    80001ebc:	0887f793          	and	a5,a5,136
    80001ec0:	ec0784e3          	beqz	a5,80001d88 <__muldf3+0xc4>
    80001ec4:	000a8993          	mv	s3,s5
    80001ec8:	00200793          	li	a5,2
    80001ecc:	10f70663          	beq	a4,a5,80001fd8 <__muldf3+0x314>
    80001ed0:	00300793          	li	a5,3
    80001ed4:	10f70863          	beq	a4,a5,80001fe4 <__muldf3+0x320>
    80001ed8:	00100793          	li	a5,1
    80001edc:	10f70e63          	beq	a4,a5,80001ff8 <__muldf3+0x334>
    80001ee0:	3ff50713          	add	a4,a0,1023
    80001ee4:	08e05e63          	blez	a4,80001f80 <__muldf3+0x2bc>
    80001ee8:	00747793          	and	a5,s0,7
    80001eec:	00078a63          	beqz	a5,80001f00 <__muldf3+0x23c>
    80001ef0:	00f47793          	and	a5,s0,15
    80001ef4:	00400693          	li	a3,4
    80001ef8:	00d78463          	beq	a5,a3,80001f00 <__muldf3+0x23c>
    80001efc:	00440413          	add	s0,s0,4
    80001f00:	00741793          	sll	a5,s0,0x7
    80001f04:	0007dc63          	bgez	a5,80001f1c <__muldf3+0x258>
    80001f08:	fff00793          	li	a5,-1
    80001f0c:	03879793          	sll	a5,a5,0x38
    80001f10:	fff78793          	add	a5,a5,-1
    80001f14:	00f47433          	and	s0,s0,a5
    80001f18:	40050713          	add	a4,a0,1024
    80001f1c:	7fe00793          	li	a5,2046
    80001f20:	0ae7cc63          	blt	a5,a4,80001fd8 <__muldf3+0x314>
    80001f24:	00345793          	srl	a5,s0,0x3
    80001f28:	03813083          	ld	ra,56(sp)
    80001f2c:	03013403          	ld	s0,48(sp)
    80001f30:	00c79793          	sll	a5,a5,0xc
    80001f34:	03471513          	sll	a0,a4,0x34
    80001f38:	00c7d793          	srl	a5,a5,0xc
    80001f3c:	03f99993          	sll	s3,s3,0x3f
    80001f40:	00f56533          	or	a0,a0,a5
    80001f44:	02813483          	ld	s1,40(sp)
    80001f48:	02013903          	ld	s2,32(sp)
    80001f4c:	01013a03          	ld	s4,16(sp)
    80001f50:	00813a83          	ld	s5,8(sp)
    80001f54:	01356533          	or	a0,a0,s3
    80001f58:	01813983          	ld	s3,24(sp)
    80001f5c:	04010113          	add	sp,sp,64
    80001f60:	00008067          	ret
    80001f64:	00f00693          	li	a3,15
    80001f68:	06d78e63          	beq	a5,a3,80001fe4 <__muldf3+0x320>
    80001f6c:	00b00693          	li	a3,11
    80001f70:	f4d78ae3          	beq	a5,a3,80001ec4 <__muldf3+0x200>
    80001f74:	00048413          	mv	s0,s1
    80001f78:	000a0713          	mv	a4,s4
    80001f7c:	f4dff06f          	j	80001ec8 <__muldf3+0x204>
    80001f80:	00100693          	li	a3,1
    80001f84:	40e686b3          	sub	a3,a3,a4
    80001f88:	03800793          	li	a5,56
    80001f8c:	06d7c663          	blt	a5,a3,80001ff8 <__muldf3+0x334>
    80001f90:	04000713          	li	a4,64
    80001f94:	40d7073b          	subw	a4,a4,a3
    80001f98:	00e41733          	sll	a4,s0,a4
    80001f9c:	00e03733          	snez	a4,a4
    80001fa0:	00d457b3          	srl	a5,s0,a3
    80001fa4:	00e7e7b3          	or	a5,a5,a4
    80001fa8:	0077f713          	and	a4,a5,7
    80001fac:	00070a63          	beqz	a4,80001fc0 <__muldf3+0x2fc>
    80001fb0:	00f7f713          	and	a4,a5,15
    80001fb4:	00400693          	li	a3,4
    80001fb8:	00d70463          	beq	a4,a3,80001fc0 <__muldf3+0x2fc>
    80001fbc:	00478793          	add	a5,a5,4
    80001fc0:	00879713          	sll	a4,a5,0x8
    80001fc4:	0037d793          	srl	a5,a5,0x3
    80001fc8:	02075a63          	bgez	a4,80001ffc <__muldf3+0x338>
    80001fcc:	00000793          	li	a5,0
    80001fd0:	00100713          	li	a4,1
    80001fd4:	f55ff06f          	j	80001f28 <__muldf3+0x264>
    80001fd8:	00000793          	li	a5,0
    80001fdc:	7ff00713          	li	a4,2047
    80001fe0:	f49ff06f          	j	80001f28 <__muldf3+0x264>
    80001fe4:	00100793          	li	a5,1
    80001fe8:	03379793          	sll	a5,a5,0x33
    80001fec:	7ff00713          	li	a4,2047
    80001ff0:	00000993          	li	s3,0
    80001ff4:	f35ff06f          	j	80001f28 <__muldf3+0x264>
    80001ff8:	00000793          	li	a5,0
    80001ffc:	00000713          	li	a4,0
    80002000:	f29ff06f          	j	80001f28 <__muldf3+0x264>

0000000080002004 <__subdf3>:
    80002004:	fff00613          	li	a2,-1
    80002008:	fe010113          	add	sp,sp,-32
    8000200c:	00c65613          	srl	a2,a2,0xc
    80002010:	00a676b3          	and	a3,a2,a0
    80002014:	03455813          	srl	a6,a0,0x34
    80002018:	00813823          	sd	s0,16(sp)
    8000201c:	03f55413          	srl	s0,a0,0x3f
    80002020:	0345d513          	srl	a0,a1,0x34
    80002024:	00b677b3          	and	a5,a2,a1
    80002028:	01213023          	sd	s2,0(sp)
    8000202c:	7ff87813          	and	a6,a6,2047
    80002030:	00113c23          	sd	ra,24(sp)
    80002034:	00913423          	sd	s1,8(sp)
    80002038:	7ff57513          	and	a0,a0,2047
    8000203c:	7ff00713          	li	a4,2047
    80002040:	00080913          	mv	s2,a6
    80002044:	00369693          	sll	a3,a3,0x3
    80002048:	03f5d593          	srl	a1,a1,0x3f
    8000204c:	00379793          	sll	a5,a5,0x3
    80002050:	00e51463          	bne	a0,a4,80002058 <__subdf3+0x54>
    80002054:	00079463          	bnez	a5,8000205c <__subdf3+0x58>
    80002058:	0015c593          	xor	a1,a1,1
    8000205c:	40a8063b          	subw	a2,a6,a0
    80002060:	0006089b          	sext.w	a7,a2
    80002064:	18859a63          	bne	a1,s0,800021f8 <__subdf3+0x1f4>
    80002068:	09105e63          	blez	a7,80002104 <__subdf3+0x100>
    8000206c:	04051c63          	bnez	a0,800020c4 <__subdf3+0xc0>
    80002070:	04078663          	beqz	a5,800020bc <__subdf3+0xb8>
    80002074:	fff6089b          	addw	a7,a2,-1
    80002078:	02089e63          	bnez	a7,800020b4 <__subdf3+0xb0>
    8000207c:	00d787b3          	add	a5,a5,a3
    80002080:	00879713          	sll	a4,a5,0x8
    80002084:	12075863          	bgez	a4,800021b4 <__subdf3+0x1b0>
    80002088:	00190913          	add	s2,s2,1
    8000208c:	7ff00713          	li	a4,2047
    80002090:	34e90263          	beq	s2,a4,800023d4 <__subdf3+0x3d0>
    80002094:	1ff00713          	li	a4,511
    80002098:	03671713          	sll	a4,a4,0x36
    8000209c:	0017f693          	and	a3,a5,1
    800020a0:	fff70713          	add	a4,a4,-1
    800020a4:	0017d793          	srl	a5,a5,0x1
    800020a8:	00e7f7b3          	and	a5,a5,a4
    800020ac:	00d7e7b3          	or	a5,a5,a3
    800020b0:	1040006f          	j	800021b4 <__subdf3+0x1b0>
    800020b4:	7ff00713          	li	a4,2047
    800020b8:	02e81063          	bne	a6,a4,800020d8 <__subdf3+0xd4>
    800020bc:	00068793          	mv	a5,a3
    800020c0:	0f40006f          	j	800021b4 <__subdf3+0x1b0>
    800020c4:	7ff00713          	li	a4,2047
    800020c8:	fee80ae3          	beq	a6,a4,800020bc <__subdf3+0xb8>
    800020cc:	00100713          	li	a4,1
    800020d0:	03771713          	sll	a4,a4,0x37
    800020d4:	00e7e7b3          	or	a5,a5,a4
    800020d8:	03800613          	li	a2,56
    800020dc:	00100713          	li	a4,1
    800020e0:	01164e63          	blt	a2,a7,800020fc <__subdf3+0xf8>
    800020e4:	04000613          	li	a2,64
    800020e8:	4116063b          	subw	a2,a2,a7
    800020ec:	00c79633          	sll	a2,a5,a2
    800020f0:	0117d733          	srl	a4,a5,a7
    800020f4:	00c03633          	snez	a2,a2
    800020f8:	00c76733          	or	a4,a4,a2
    800020fc:	00d707b3          	add	a5,a4,a3
    80002100:	f81ff06f          	j	80002080 <__subdf3+0x7c>
    80002104:	06088c63          	beqz	a7,8000217c <__subdf3+0x178>
    80002108:	02081863          	bnez	a6,80002138 <__subdf3+0x134>
    8000210c:	2a068e63          	beqz	a3,800023c8 <__subdf3+0x3c4>
    80002110:	fff64613          	not	a2,a2
    80002114:	0006061b          	sext.w	a2,a2
    80002118:	00061863          	bnez	a2,80002128 <__subdf3+0x124>
    8000211c:	00d787b3          	add	a5,a5,a3
    80002120:	00050913          	mv	s2,a0
    80002124:	f5dff06f          	j	80002080 <__subdf3+0x7c>
    80002128:	7ff00713          	li	a4,2047
    8000212c:	02e51263          	bne	a0,a4,80002150 <__subdf3+0x14c>
    80002130:	7ff00913          	li	s2,2047
    80002134:	0800006f          	j	800021b4 <__subdf3+0x1b0>
    80002138:	7ff00713          	li	a4,2047
    8000213c:	fee50ae3          	beq	a0,a4,80002130 <__subdf3+0x12c>
    80002140:	00100713          	li	a4,1
    80002144:	03771713          	sll	a4,a4,0x37
    80002148:	40c0063b          	negw	a2,a2
    8000214c:	00e6e6b3          	or	a3,a3,a4
    80002150:	03800593          	li	a1,56
    80002154:	00100713          	li	a4,1
    80002158:	00c5ce63          	blt	a1,a2,80002174 <__subdf3+0x170>
    8000215c:	04000713          	li	a4,64
    80002160:	40c7073b          	subw	a4,a4,a2
    80002164:	00e69733          	sll	a4,a3,a4
    80002168:	00c6d5b3          	srl	a1,a3,a2
    8000216c:	00e03733          	snez	a4,a4
    80002170:	00e5e733          	or	a4,a1,a4
    80002174:	00e787b3          	add	a5,a5,a4
    80002178:	fa9ff06f          	j	80002120 <__subdf3+0x11c>
    8000217c:	00180713          	add	a4,a6,1
    80002180:	7fe77613          	and	a2,a4,2046
    80002184:	04061e63          	bnez	a2,800021e0 <__subdf3+0x1dc>
    80002188:	04081463          	bnez	a6,800021d0 <__subdf3+0x1cc>
    8000218c:	02068463          	beqz	a3,800021b4 <__subdf3+0x1b0>
    80002190:	f20786e3          	beqz	a5,800020bc <__subdf3+0xb8>
    80002194:	00d787b3          	add	a5,a5,a3
    80002198:	00879713          	sll	a4,a5,0x8
    8000219c:	00075c63          	bgez	a4,800021b4 <__subdf3+0x1b0>
    800021a0:	fff00713          	li	a4,-1
    800021a4:	03771713          	sll	a4,a4,0x37
    800021a8:	fff70713          	add	a4,a4,-1
    800021ac:	00e7f7b3          	and	a5,a5,a4
    800021b0:	00100913          	li	s2,1
    800021b4:	0077f713          	and	a4,a5,7
    800021b8:	22070063          	beqz	a4,800023d8 <__subdf3+0x3d4>
    800021bc:	00f7f713          	and	a4,a5,15
    800021c0:	00400693          	li	a3,4
    800021c4:	20d70a63          	beq	a4,a3,800023d8 <__subdf3+0x3d4>
    800021c8:	00478793          	add	a5,a5,4
    800021cc:	20c0006f          	j	800023d8 <__subdf3+0x3d4>
    800021d0:	f60680e3          	beqz	a3,80002130 <__subdf3+0x12c>
    800021d4:	16079463          	bnez	a5,8000233c <__subdf3+0x338>
    800021d8:	00068793          	mv	a5,a3
    800021dc:	f55ff06f          	j	80002130 <__subdf3+0x12c>
    800021e0:	7ff00613          	li	a2,2047
    800021e4:	1ec70663          	beq	a4,a2,800023d0 <__subdf3+0x3cc>
    800021e8:	00f687b3          	add	a5,a3,a5
    800021ec:	0017d793          	srl	a5,a5,0x1
    800021f0:	00070913          	mv	s2,a4
    800021f4:	fc1ff06f          	j	800021b4 <__subdf3+0x1b0>
    800021f8:	07105c63          	blez	a7,80002270 <__subdf3+0x26c>
    800021fc:	04051e63          	bnez	a0,80002258 <__subdf3+0x254>
    80002200:	ea078ee3          	beqz	a5,800020bc <__subdf3+0xb8>
    80002204:	fff6089b          	addw	a7,a2,-1
    80002208:	00089e63          	bnez	a7,80002224 <__subdf3+0x220>
    8000220c:	40f687b3          	sub	a5,a3,a5
    80002210:	00879713          	sll	a4,a5,0x8
    80002214:	fa0750e3          	bgez	a4,800021b4 <__subdf3+0x1b0>
    80002218:	00979493          	sll	s1,a5,0x9
    8000221c:	0094d493          	srl	s1,s1,0x9
    80002220:	1440006f          	j	80002364 <__subdf3+0x360>
    80002224:	7ff00713          	li	a4,2047
    80002228:	e8e80ae3          	beq	a6,a4,800020bc <__subdf3+0xb8>
    8000222c:	03800613          	li	a2,56
    80002230:	00100713          	li	a4,1
    80002234:	01164e63          	blt	a2,a7,80002250 <__subdf3+0x24c>
    80002238:	04000613          	li	a2,64
    8000223c:	4116063b          	subw	a2,a2,a7
    80002240:	00c79633          	sll	a2,a5,a2
    80002244:	0117d733          	srl	a4,a5,a7
    80002248:	00c03633          	snez	a2,a2
    8000224c:	00c76733          	or	a4,a4,a2
    80002250:	40e687b3          	sub	a5,a3,a4
    80002254:	fbdff06f          	j	80002210 <__subdf3+0x20c>
    80002258:	7ff00713          	li	a4,2047
    8000225c:	e6e800e3          	beq	a6,a4,800020bc <__subdf3+0xb8>
    80002260:	00100713          	li	a4,1
    80002264:	03771713          	sll	a4,a4,0x37
    80002268:	00e7e7b3          	or	a5,a5,a4
    8000226c:	fc1ff06f          	j	8000222c <__subdf3+0x228>
    80002270:	06088e63          	beqz	a7,800022ec <__subdf3+0x2e8>
    80002274:	02081a63          	bnez	a6,800022a8 <__subdf3+0x2a4>
    80002278:	1c068e63          	beqz	a3,80002454 <__subdf3+0x450>
    8000227c:	fff64613          	not	a2,a2
    80002280:	0006061b          	sext.w	a2,a2
    80002284:	00061a63          	bnez	a2,80002298 <__subdf3+0x294>
    80002288:	40d787b3          	sub	a5,a5,a3
    8000228c:	00050913          	mv	s2,a0
    80002290:	00058413          	mv	s0,a1
    80002294:	f7dff06f          	j	80002210 <__subdf3+0x20c>
    80002298:	7ff00713          	li	a4,2047
    8000229c:	02e51263          	bne	a0,a4,800022c0 <__subdf3+0x2bc>
    800022a0:	7ff00913          	li	s2,2047
    800022a4:	1b40006f          	j	80002458 <__subdf3+0x454>
    800022a8:	7ff00713          	li	a4,2047
    800022ac:	fee50ae3          	beq	a0,a4,800022a0 <__subdf3+0x29c>
    800022b0:	00100713          	li	a4,1
    800022b4:	03771713          	sll	a4,a4,0x37
    800022b8:	40c0063b          	negw	a2,a2
    800022bc:	00e6e6b3          	or	a3,a3,a4
    800022c0:	03800813          	li	a6,56
    800022c4:	00100713          	li	a4,1
    800022c8:	00c84e63          	blt	a6,a2,800022e4 <__subdf3+0x2e0>
    800022cc:	04000713          	li	a4,64
    800022d0:	40c7073b          	subw	a4,a4,a2
    800022d4:	00e69733          	sll	a4,a3,a4
    800022d8:	00c6d833          	srl	a6,a3,a2
    800022dc:	00e03733          	snez	a4,a4
    800022e0:	00e86733          	or	a4,a6,a4
    800022e4:	40e787b3          	sub	a5,a5,a4
    800022e8:	fa5ff06f          	j	8000228c <__subdf3+0x288>
    800022ec:	00180713          	add	a4,a6,1
    800022f0:	7fe77713          	and	a4,a4,2046
    800022f4:	04071e63          	bnez	a4,80002350 <__subdf3+0x34c>
    800022f8:	02081c63          	bnez	a6,80002330 <__subdf3+0x32c>
    800022fc:	00069863          	bnez	a3,8000230c <__subdf3+0x308>
    80002300:	14079c63          	bnez	a5,80002458 <__subdf3+0x454>
    80002304:	00000413          	li	s0,0
    80002308:	0d00006f          	j	800023d8 <__subdf3+0x3d4>
    8000230c:	da0788e3          	beqz	a5,800020bc <__subdf3+0xb8>
    80002310:	40f68733          	sub	a4,a3,a5
    80002314:	00871613          	sll	a2,a4,0x8
    80002318:	40d787b3          	sub	a5,a5,a3
    8000231c:	12064e63          	bltz	a2,80002458 <__subdf3+0x454>
    80002320:	00070793          	mv	a5,a4
    80002324:	e80718e3          	bnez	a4,800021b4 <__subdf3+0x1b0>
    80002328:	00000793          	li	a5,0
    8000232c:	fd9ff06f          	j	80002304 <__subdf3+0x300>
    80002330:	ea0692e3          	bnez	a3,800021d4 <__subdf3+0x1d0>
    80002334:	00058413          	mv	s0,a1
    80002338:	de079ce3          	bnez	a5,80002130 <__subdf3+0x12c>
    8000233c:	00100793          	li	a5,1
    80002340:	00000413          	li	s0,0
    80002344:	03679793          	sll	a5,a5,0x36
    80002348:	7ff00913          	li	s2,2047
    8000234c:	08c0006f          	j	800023d8 <__subdf3+0x3d4>
    80002350:	40f684b3          	sub	s1,a3,a5
    80002354:	00849713          	sll	a4,s1,0x8
    80002358:	04075463          	bgez	a4,800023a0 <__subdf3+0x39c>
    8000235c:	40d784b3          	sub	s1,a5,a3
    80002360:	00058413          	mv	s0,a1
    80002364:	00048513          	mv	a0,s1
    80002368:	714010ef          	jal	80003a7c <__clzdi2>
    8000236c:	ff85079b          	addw	a5,a0,-8
    80002370:	00f494b3          	sll	s1,s1,a5
    80002374:	0327ce63          	blt	a5,s2,800023b0 <__subdf3+0x3ac>
    80002378:	4127853b          	subw	a0,a5,s2
    8000237c:	0015051b          	addw	a0,a0,1
    80002380:	04000713          	li	a4,64
    80002384:	40a7073b          	subw	a4,a4,a0
    80002388:	00a4d7b3          	srl	a5,s1,a0
    8000238c:	00e494b3          	sll	s1,s1,a4
    80002390:	009034b3          	snez	s1,s1
    80002394:	0097e7b3          	or	a5,a5,s1
    80002398:	00000913          	li	s2,0
    8000239c:	e19ff06f          	j	800021b4 <__subdf3+0x1b0>
    800023a0:	fc0492e3          	bnez	s1,80002364 <__subdf3+0x360>
    800023a4:	00000793          	li	a5,0
    800023a8:	00000913          	li	s2,0
    800023ac:	f59ff06f          	j	80002304 <__subdf3+0x300>
    800023b0:	40f90933          	sub	s2,s2,a5
    800023b4:	fff00793          	li	a5,-1
    800023b8:	03779793          	sll	a5,a5,0x37
    800023bc:	fff78793          	add	a5,a5,-1
    800023c0:	00f4f7b3          	and	a5,s1,a5
    800023c4:	df1ff06f          	j	800021b4 <__subdf3+0x1b0>
    800023c8:	00050913          	mv	s2,a0
    800023cc:	de9ff06f          	j	800021b4 <__subdf3+0x1b0>
    800023d0:	7ff00913          	li	s2,2047
    800023d4:	00000793          	li	a5,0
    800023d8:	00879713          	sll	a4,a5,0x8
    800023dc:	02075063          	bgez	a4,800023fc <__subdf3+0x3f8>
    800023e0:	00190913          	add	s2,s2,1
    800023e4:	7ff00713          	li	a4,2047
    800023e8:	06e90c63          	beq	s2,a4,80002460 <__subdf3+0x45c>
    800023ec:	fff00713          	li	a4,-1
    800023f0:	03771713          	sll	a4,a4,0x37
    800023f4:	fff70713          	add	a4,a4,-1
    800023f8:	00e7f7b3          	and	a5,a5,a4
    800023fc:	7ff00713          	li	a4,2047
    80002400:	0037d793          	srl	a5,a5,0x3
    80002404:	00e91a63          	bne	s2,a4,80002418 <__subdf3+0x414>
    80002408:	00078863          	beqz	a5,80002418 <__subdf3+0x414>
    8000240c:	00100793          	li	a5,1
    80002410:	03379793          	sll	a5,a5,0x33
    80002414:	00000413          	li	s0,0
    80002418:	7ff00693          	li	a3,2047
    8000241c:	01813083          	ld	ra,24(sp)
    80002420:	03491713          	sll	a4,s2,0x34
    80002424:	03f41513          	sll	a0,s0,0x3f
    80002428:	03469693          	sll	a3,a3,0x34
    8000242c:	01013403          	ld	s0,16(sp)
    80002430:	00c79793          	sll	a5,a5,0xc
    80002434:	00d77733          	and	a4,a4,a3
    80002438:	00c7d793          	srl	a5,a5,0xc
    8000243c:	00f767b3          	or	a5,a4,a5
    80002440:	00813483          	ld	s1,8(sp)
    80002444:	00013903          	ld	s2,0(sp)
    80002448:	00a7e533          	or	a0,a5,a0
    8000244c:	02010113          	add	sp,sp,32
    80002450:	00008067          	ret
    80002454:	00050913          	mv	s2,a0
    80002458:	00058413          	mv	s0,a1
    8000245c:	d59ff06f          	j	800021b4 <__subdf3+0x1b0>
    80002460:	00000793          	li	a5,0
    80002464:	f99ff06f          	j	800023fc <__subdf3+0x3f8>

0000000080002468 <__fixdfsi>:
    80002468:	03455693          	srl	a3,a0,0x34
    8000246c:	00c51793          	sll	a5,a0,0xc
    80002470:	7ff6f693          	and	a3,a3,2047
    80002474:	3fe00613          	li	a2,1022
    80002478:	00c7d793          	srl	a5,a5,0xc
    8000247c:	03f55713          	srl	a4,a0,0x3f
    80002480:	04d65263          	bge	a2,a3,800024c4 <__fixdfsi+0x5c>
    80002484:	41d00613          	li	a2,1053
    80002488:	00d65a63          	bge	a2,a3,8000249c <__fixdfsi+0x34>
    8000248c:	80000537          	lui	a0,0x80000
    80002490:	fff54513          	not	a0,a0
    80002494:	00a7053b          	addw	a0,a4,a0
    80002498:	00008067          	ret
    8000249c:	00100613          	li	a2,1
    800024a0:	03461613          	sll	a2,a2,0x34
    800024a4:	00c7e533          	or	a0,a5,a2
    800024a8:	43300793          	li	a5,1075
    800024ac:	40d787bb          	subw	a5,a5,a3
    800024b0:	00f55533          	srl	a0,a0,a5
    800024b4:	0005051b          	sext.w	a0,a0
    800024b8:	00070863          	beqz	a4,800024c8 <__fixdfsi+0x60>
    800024bc:	40a0053b          	negw	a0,a0
    800024c0:	00008067          	ret
    800024c4:	00000513          	li	a0,0
    800024c8:	00008067          	ret

00000000800024cc <__fixdfdi>:
    800024cc:	fff00613          	li	a2,-1
    800024d0:	03455693          	srl	a3,a0,0x34
    800024d4:	00c65793          	srl	a5,a2,0xc
    800024d8:	7ff6f693          	and	a3,a3,2047
    800024dc:	3fe00593          	li	a1,1022
    800024e0:	00a7f7b3          	and	a5,a5,a0
    800024e4:	03f55713          	srl	a4,a0,0x3f
    800024e8:	04d5da63          	bge	a1,a3,8000253c <__fixdfdi+0x70>
    800024ec:	43d00593          	li	a1,1085
    800024f0:	00d5d863          	bge	a1,a3,80002500 <__fixdfdi+0x34>
    800024f4:	00165613          	srl	a2,a2,0x1
    800024f8:	00c70533          	add	a0,a4,a2
    800024fc:	00008067          	ret
    80002500:	00100613          	li	a2,1
    80002504:	03461613          	sll	a2,a2,0x34
    80002508:	00c7e533          	or	a0,a5,a2
    8000250c:	43200613          	li	a2,1074
    80002510:	0006879b          	sext.w	a5,a3
    80002514:	00d65c63          	bge	a2,a3,8000252c <__fixdfdi+0x60>
    80002518:	bcd7879b          	addw	a5,a5,-1075
    8000251c:	00f51533          	sll	a0,a0,a5
    80002520:	02070063          	beqz	a4,80002540 <__fixdfdi+0x74>
    80002524:	40a00533          	neg	a0,a0
    80002528:	00008067          	ret
    8000252c:	43300693          	li	a3,1075
    80002530:	40f687bb          	subw	a5,a3,a5
    80002534:	00f55533          	srl	a0,a0,a5
    80002538:	fe9ff06f          	j	80002520 <__fixdfdi+0x54>
    8000253c:	00000513          	li	a0,0
    80002540:	00008067          	ret

0000000080002544 <__floatdidf>:
    80002544:	fe010113          	add	sp,sp,-32
    80002548:	00113c23          	sd	ra,24(sp)
    8000254c:	00813823          	sd	s0,16(sp)
    80002550:	00913423          	sd	s1,8(sp)
    80002554:	00050793          	mv	a5,a0
    80002558:	0e050263          	beqz	a0,8000263c <__floatdidf+0xf8>
    8000255c:	43f55713          	sra	a4,a0,0x3f
    80002560:	00a74433          	xor	s0,a4,a0
    80002564:	40e40433          	sub	s0,s0,a4
    80002568:	03f55493          	srl	s1,a0,0x3f
    8000256c:	00040513          	mv	a0,s0
    80002570:	50c010ef          	jal	80003a7c <__clzdi2>
    80002574:	43e00793          	li	a5,1086
    80002578:	40a787bb          	subw	a5,a5,a0
    8000257c:	43300713          	li	a4,1075
    80002580:	02f74e63          	blt	a4,a5,800025bc <__floatdidf+0x78>
    80002584:	00e78663          	beq	a5,a4,80002590 <__floatdidf+0x4c>
    80002588:	ff55051b          	addw	a0,a0,-11 # 7ffffff5 <_stack_len+0x7fff7ff5>
    8000258c:	00a41433          	sll	s0,s0,a0
    80002590:	00c41413          	sll	s0,s0,0xc
    80002594:	00c45413          	srl	s0,s0,0xc
    80002598:	03479793          	sll	a5,a5,0x34
    8000259c:	01813083          	ld	ra,24(sp)
    800025a0:	0087e7b3          	or	a5,a5,s0
    800025a4:	01013403          	ld	s0,16(sp)
    800025a8:	03f49513          	sll	a0,s1,0x3f
    800025ac:	00a7e533          	or	a0,a5,a0
    800025b0:	00813483          	ld	s1,8(sp)
    800025b4:	02010113          	add	sp,sp,32
    800025b8:	00008067          	ret
    800025bc:	43600713          	li	a4,1078
    800025c0:	06f75663          	bge	a4,a5,8000262c <__floatdidf+0xe8>
    800025c4:	00800713          	li	a4,8
    800025c8:	40a7073b          	subw	a4,a4,a0
    800025cc:	0385051b          	addw	a0,a0,56
    800025d0:	00e45733          	srl	a4,s0,a4
    800025d4:	00a41433          	sll	s0,s0,a0
    800025d8:	00803433          	snez	s0,s0
    800025dc:	00876433          	or	s0,a4,s0
    800025e0:	fff00713          	li	a4,-1
    800025e4:	03771713          	sll	a4,a4,0x37
    800025e8:	fff70713          	add	a4,a4,-1
    800025ec:	00747693          	and	a3,s0,7
    800025f0:	00e47733          	and	a4,s0,a4
    800025f4:	00068a63          	beqz	a3,80002608 <__floatdidf+0xc4>
    800025f8:	00f47413          	and	s0,s0,15
    800025fc:	00400693          	li	a3,4
    80002600:	00d40463          	beq	s0,a3,80002608 <__floatdidf+0xc4>
    80002604:	00470713          	add	a4,a4,4
    80002608:	00871693          	sll	a3,a4,0x8
    8000260c:	0006dc63          	bgez	a3,80002624 <__floatdidf+0xe0>
    80002610:	fff00693          	li	a3,-1
    80002614:	03769693          	sll	a3,a3,0x37
    80002618:	fff68693          	add	a3,a3,-1
    8000261c:	00d77733          	and	a4,a4,a3
    80002620:	00178793          	add	a5,a5,1
    80002624:	00375413          	srl	s0,a4,0x3
    80002628:	f69ff06f          	j	80002590 <__floatdidf+0x4c>
    8000262c:	fae78ae3          	beq	a5,a4,800025e0 <__floatdidf+0x9c>
    80002630:	ff85051b          	addw	a0,a0,-8
    80002634:	00a41433          	sll	s0,s0,a0
    80002638:	fa9ff06f          	j	800025e0 <__floatdidf+0x9c>
    8000263c:	00000493          	li	s1,0
    80002640:	00000413          	li	s0,0
    80002644:	f4dff06f          	j	80002590 <__floatdidf+0x4c>

0000000080002648 <__getf2>:
    80002648:	00008337          	lui	t1,0x8
    8000264c:	0305d813          	srl	a6,a1,0x30
    80002650:	fff30313          	add	t1,t1,-1 # 7fff <_min_stack+0x5fff>
    80002654:	fff00713          	li	a4,-1
    80002658:	01075713          	srl	a4,a4,0x10
    8000265c:	0306d793          	srl	a5,a3,0x30
    80002660:	00687833          	and	a6,a6,t1
    80002664:	00e5fe33          	and	t3,a1,a4
    80002668:	00050893          	mv	a7,a0
    8000266c:	00e6f733          	and	a4,a3,a4
    80002670:	03f5d593          	srl	a1,a1,0x3f
    80002674:	0067f533          	and	a0,a5,t1
    80002678:	03f6d693          	srl	a3,a3,0x3f
    8000267c:	00681663          	bne	a6,t1,80002688 <__getf2+0x40>
    80002680:	011e67b3          	or	a5,t3,a7
    80002684:	06079a63          	bnez	a5,800026f8 <__getf2+0xb0>
    80002688:	00651663          	bne	a0,t1,80002694 <__getf2+0x4c>
    8000268c:	00c767b3          	or	a5,a4,a2
    80002690:	06079463          	bnez	a5,800026f8 <__getf2+0xb0>
    80002694:	00000793          	li	a5,0
    80002698:	00081663          	bnez	a6,800026a4 <__getf2+0x5c>
    8000269c:	011e67b3          	or	a5,t3,a7
    800026a0:	0017b793          	seqz	a5,a5
    800026a4:	04051e63          	bnez	a0,80002700 <__getf2+0xb8>
    800026a8:	00c76333          	or	t1,a4,a2
    800026ac:	00078c63          	beqz	a5,800026c4 <__getf2+0x7c>
    800026b0:	02030063          	beqz	t1,800026d0 <__getf2+0x88>
    800026b4:	00100513          	li	a0,1
    800026b8:	00069c63          	bnez	a3,800026d0 <__getf2+0x88>
    800026bc:	fff00513          	li	a0,-1
    800026c0:	00008067          	ret
    800026c4:	04031063          	bnez	t1,80002704 <__getf2+0xbc>
    800026c8:	fff00513          	li	a0,-1
    800026cc:	04058463          	beqz	a1,80002714 <__getf2+0xcc>
    800026d0:	00008067          	ret
    800026d4:	fea840e3          	blt	a6,a0,800026b4 <__getf2+0x6c>
    800026d8:	ffc768e3          	bltu	a4,t3,800026c8 <__getf2+0x80>
    800026dc:	00ee1863          	bne	t3,a4,800026ec <__getf2+0xa4>
    800026e0:	ff1664e3          	bltu	a2,a7,800026c8 <__getf2+0x80>
    800026e4:	00000513          	li	a0,0
    800026e8:	fec8f4e3          	bgeu	a7,a2,800026d0 <__getf2+0x88>
    800026ec:	00100513          	li	a0,1
    800026f0:	fe0590e3          	bnez	a1,800026d0 <__getf2+0x88>
    800026f4:	fc9ff06f          	j	800026bc <__getf2+0x74>
    800026f8:	ffe00513          	li	a0,-2
    800026fc:	00008067          	ret
    80002700:	fa079ae3          	bnez	a5,800026b4 <__getf2+0x6c>
    80002704:	fcb692e3          	bne	a3,a1,800026c8 <__getf2+0x80>
    80002708:	fd0556e3          	bge	a0,a6,800026d4 <__getf2+0x8c>
    8000270c:	fff00513          	li	a0,-1
    80002710:	fc0690e3          	bnez	a3,800026d0 <__getf2+0x88>
    80002714:	00100513          	li	a0,1
    80002718:	00008067          	ret

000000008000271c <__letf2>:
    8000271c:	00008337          	lui	t1,0x8
    80002720:	0305d813          	srl	a6,a1,0x30
    80002724:	fff30313          	add	t1,t1,-1 # 7fff <_min_stack+0x5fff>
    80002728:	fff00713          	li	a4,-1
    8000272c:	01075713          	srl	a4,a4,0x10
    80002730:	0306d793          	srl	a5,a3,0x30
    80002734:	00687833          	and	a6,a6,t1
    80002738:	00e5fe33          	and	t3,a1,a4
    8000273c:	00050893          	mv	a7,a0
    80002740:	00e6f733          	and	a4,a3,a4
    80002744:	03f5d593          	srl	a1,a1,0x3f
    80002748:	0067f533          	and	a0,a5,t1
    8000274c:	03f6d693          	srl	a3,a3,0x3f
    80002750:	00681663          	bne	a6,t1,8000275c <__letf2+0x40>
    80002754:	011e67b3          	or	a5,t3,a7
    80002758:	06079a63          	bnez	a5,800027cc <__letf2+0xb0>
    8000275c:	00651663          	bne	a0,t1,80002768 <__letf2+0x4c>
    80002760:	00c767b3          	or	a5,a4,a2
    80002764:	06079463          	bnez	a5,800027cc <__letf2+0xb0>
    80002768:	00000793          	li	a5,0
    8000276c:	00081663          	bnez	a6,80002778 <__letf2+0x5c>
    80002770:	011e67b3          	or	a5,t3,a7
    80002774:	0017b793          	seqz	a5,a5
    80002778:	04051e63          	bnez	a0,800027d4 <__letf2+0xb8>
    8000277c:	00c76333          	or	t1,a4,a2
    80002780:	00078c63          	beqz	a5,80002798 <__letf2+0x7c>
    80002784:	02030063          	beqz	t1,800027a4 <__letf2+0x88>
    80002788:	00100513          	li	a0,1
    8000278c:	00069c63          	bnez	a3,800027a4 <__letf2+0x88>
    80002790:	fff00513          	li	a0,-1
    80002794:	00008067          	ret
    80002798:	04031063          	bnez	t1,800027d8 <__letf2+0xbc>
    8000279c:	fff00513          	li	a0,-1
    800027a0:	04058463          	beqz	a1,800027e8 <__letf2+0xcc>
    800027a4:	00008067          	ret
    800027a8:	fea840e3          	blt	a6,a0,80002788 <__letf2+0x6c>
    800027ac:	ffc768e3          	bltu	a4,t3,8000279c <__letf2+0x80>
    800027b0:	00ee1863          	bne	t3,a4,800027c0 <__letf2+0xa4>
    800027b4:	ff1664e3          	bltu	a2,a7,8000279c <__letf2+0x80>
    800027b8:	00000513          	li	a0,0
    800027bc:	fec8f4e3          	bgeu	a7,a2,800027a4 <__letf2+0x88>
    800027c0:	00100513          	li	a0,1
    800027c4:	fe0590e3          	bnez	a1,800027a4 <__letf2+0x88>
    800027c8:	fc9ff06f          	j	80002790 <__letf2+0x74>
    800027cc:	00200513          	li	a0,2
    800027d0:	00008067          	ret
    800027d4:	fa079ae3          	bnez	a5,80002788 <__letf2+0x6c>
    800027d8:	fcb692e3          	bne	a3,a1,8000279c <__letf2+0x80>
    800027dc:	fd0556e3          	bge	a0,a6,800027a8 <__letf2+0x8c>
    800027e0:	fff00513          	li	a0,-1
    800027e4:	fc0690e3          	bnez	a3,800027a4 <__letf2+0x88>
    800027e8:	00100513          	li	a0,1
    800027ec:	00008067          	ret

00000000800027f0 <__multf3>:
    800027f0:	00008737          	lui	a4,0x8
    800027f4:	fb010113          	add	sp,sp,-80
    800027f8:	0305d793          	srl	a5,a1,0x30
    800027fc:	fff70713          	add	a4,a4,-1 # 7fff <_min_stack+0x5fff>
    80002800:	04813023          	sd	s0,64(sp)
    80002804:	02913c23          	sd	s1,56(sp)
    80002808:	03313423          	sd	s3,40(sp)
    8000280c:	01513c23          	sd	s5,24(sp)
    80002810:	01613823          	sd	s6,16(sp)
    80002814:	01059493          	sll	s1,a1,0x10
    80002818:	04113423          	sd	ra,72(sp)
    8000281c:	03213823          	sd	s2,48(sp)
    80002820:	03413023          	sd	s4,32(sp)
    80002824:	01713423          	sd	s7,8(sp)
    80002828:	00e7f7b3          	and	a5,a5,a4
    8000282c:	00050413          	mv	s0,a0
    80002830:	00060b13          	mv	s6,a2
    80002834:	00068993          	mv	s3,a3
    80002838:	0104d493          	srl	s1,s1,0x10
    8000283c:	03f5da93          	srl	s5,a1,0x3f
    80002840:	2e078463          	beqz	a5,80002b28 <__multf3+0x338>
    80002844:	0007891b          	sext.w	s2,a5
    80002848:	34e78863          	beq	a5,a4,80002b98 <__multf3+0x3a8>
    8000284c:	00349493          	sll	s1,s1,0x3
    80002850:	03d55713          	srl	a4,a0,0x3d
    80002854:	00976733          	or	a4,a4,s1
    80002858:	ffffc937          	lui	s2,0xffffc
    8000285c:	00100493          	li	s1,1
    80002860:	03349493          	sll	s1,s1,0x33
    80002864:	00190913          	add	s2,s2,1 # ffffffffffffc001 <_heap_start+0xffffffff7f9f4001>
    80002868:	009764b3          	or	s1,a4,s1
    8000286c:	00351a13          	sll	s4,a0,0x3
    80002870:	01278933          	add	s2,a5,s2
    80002874:	00000b93          	li	s7,0
    80002878:	000087b7          	lui	a5,0x8
    8000287c:	0309d613          	srl	a2,s3,0x30
    80002880:	fff78793          	add	a5,a5,-1 # 7fff <_min_stack+0x5fff>
    80002884:	01099413          	sll	s0,s3,0x10
    80002888:	00f67633          	and	a2,a2,a5
    8000288c:	01045413          	srl	s0,s0,0x10
    80002890:	03f9d993          	srl	s3,s3,0x3f
    80002894:	32060a63          	beqz	a2,80002bc8 <__multf3+0x3d8>
    80002898:	0006071b          	sext.w	a4,a2
    8000289c:	3af60063          	beq	a2,a5,80002c3c <__multf3+0x44c>
    800028a0:	00341413          	sll	s0,s0,0x3
    800028a4:	03db5793          	srl	a5,s6,0x3d
    800028a8:	0087e7b3          	or	a5,a5,s0
    800028ac:	ffffc737          	lui	a4,0xffffc
    800028b0:	00100413          	li	s0,1
    800028b4:	03341413          	sll	s0,s0,0x33
    800028b8:	00170713          	add	a4,a4,1 # ffffffffffffc001 <_heap_start+0xffffffff7f9f4001>
    800028bc:	0087e433          	or	s0,a5,s0
    800028c0:	00e60733          	add	a4,a2,a4
    800028c4:	003b1793          	sll	a5,s6,0x3
    800028c8:	00000693          	li	a3,0
    800028cc:	002b9593          	sll	a1,s7,0x2
    800028d0:	01270733          	add	a4,a4,s2
    800028d4:	00d5e5b3          	or	a1,a1,a3
    800028d8:	00a00613          	li	a2,10
    800028dc:	00170813          	add	a6,a4,1
    800028e0:	46b64e63          	blt	a2,a1,80002d5c <__multf3+0x56c>
    800028e4:	00200513          	li	a0,2
    800028e8:	013ac633          	xor	a2,s5,s3
    800028ec:	38b54063          	blt	a0,a1,80002c6c <__multf3+0x47c>
    800028f0:	fff58593          	add	a1,a1,-1
    800028f4:	00100513          	li	a0,1
    800028f8:	38b57c63          	bgeu	a0,a1,80002c90 <__multf3+0x4a0>
    800028fc:	fff00693          	li	a3,-1
    80002900:	0206d693          	srl	a3,a3,0x20
    80002904:	008782b3          	add	t0,a5,s0
    80002908:	020a5593          	srl	a1,s4,0x20
    8000290c:	0207d513          	srl	a0,a5,0x20
    80002910:	01448333          	add	t1,s1,s4
    80002914:	00f2beb3          	sltu	t4,t0,a5
    80002918:	00da7a33          	and	s4,s4,a3
    8000291c:	00d7f7b3          	and	a5,a5,a3
    80002920:	02fa08b3          	mul	a7,s4,a5
    80002924:	00933e33          	sltu	t3,t1,s1
    80002928:	02a586b3          	mul	a3,a1,a0
    8000292c:	02f587b3          	mul	a5,a1,a5
    80002930:	03450533          	mul	a0,a0,s4
    80002934:	00f505b3          	add	a1,a0,a5
    80002938:	0208d513          	srl	a0,a7,0x20
    8000293c:	00b50533          	add	a0,a0,a1
    80002940:	00f57863          	bgeu	a0,a5,80002950 <__multf3+0x160>
    80002944:	00100793          	li	a5,1
    80002948:	02079793          	sll	a5,a5,0x20
    8000294c:	00f686b3          	add	a3,a3,a5
    80002950:	fff00793          	li	a5,-1
    80002954:	0207d793          	srl	a5,a5,0x20
    80002958:	02055f13          	srl	t5,a0,0x20
    8000295c:	00f57533          	and	a0,a0,a5
    80002960:	00f8f8b3          	and	a7,a7,a5
    80002964:	02051513          	sll	a0,a0,0x20
    80002968:	02035393          	srl	t2,t1,0x20
    8000296c:	00df0f33          	add	t5,t5,a3
    80002970:	01150533          	add	a0,a0,a7
    80002974:	0202d693          	srl	a3,t0,0x20
    80002978:	00f378b3          	and	a7,t1,a5
    8000297c:	00f2f7b3          	and	a5,t0,a5
    80002980:	02f885b3          	mul	a1,a7,a5
    80002984:	02f387b3          	mul	a5,t2,a5
    80002988:	0205df93          	srl	t6,a1,0x20
    8000298c:	02d383b3          	mul	t2,t2,a3
    80002990:	031686b3          	mul	a3,a3,a7
    80002994:	00f686b3          	add	a3,a3,a5
    80002998:	00df8fb3          	add	t6,t6,a3
    8000299c:	00fff863          	bgeu	t6,a5,800029ac <__multf3+0x1bc>
    800029a0:	00100793          	li	a5,1
    800029a4:	02079793          	sll	a5,a5,0x20
    800029a8:	00f383b3          	add	t2,t2,a5
    800029ac:	fff00793          	li	a5,-1
    800029b0:	0207d793          	srl	a5,a5,0x20
    800029b4:	020fd693          	srl	a3,t6,0x20
    800029b8:	00ffffb3          	and	t6,t6,a5
    800029bc:	00f5f5b3          	and	a1,a1,a5
    800029c0:	020f9f93          	sll	t6,t6,0x20
    800029c4:	02045893          	srl	a7,s0,0x20
    800029c8:	00bf8fb3          	add	t6,t6,a1
    800029cc:	0204d593          	srl	a1,s1,0x20
    800029d0:	00f4f4b3          	and	s1,s1,a5
    800029d4:	00f477b3          	and	a5,s0,a5
    800029d8:	02f48933          	mul	s2,s1,a5
    800029dc:	03158433          	mul	s0,a1,a7
    800029e0:	02f587b3          	mul	a5,a1,a5
    800029e4:	029888b3          	mul	a7,a7,s1
    800029e8:	00f885b3          	add	a1,a7,a5
    800029ec:	02095893          	srl	a7,s2,0x20
    800029f0:	00b888b3          	add	a7,a7,a1
    800029f4:	00f8f863          	bgeu	a7,a5,80002a04 <__multf3+0x214>
    800029f8:	00100793          	li	a5,1
    800029fc:	02079793          	sll	a5,a5,0x20
    80002a00:	00f40433          	add	s0,s0,a5
    80002a04:	0208d593          	srl	a1,a7,0x20
    80002a08:	008585b3          	add	a1,a1,s0
    80002a0c:	fff00413          	li	s0,-1
    80002a10:	02045413          	srl	s0,s0,0x20
    80002a14:	0088f7b3          	and	a5,a7,s0
    80002a18:	02079793          	sll	a5,a5,0x20
    80002a1c:	00897933          	and	s2,s2,s0
    80002a20:	012787b3          	add	a5,a5,s2
    80002a24:	00000893          	li	a7,0
    80002a28:	000e8463          	beqz	t4,80002a30 <__multf3+0x240>
    80002a2c:	00030893          	mv	a7,t1
    80002a30:	00000313          	li	t1,0
    80002a34:	000e0463          	beqz	t3,80002a3c <__multf3+0x24c>
    80002a38:	00028313          	mv	t1,t0
    80002a3c:	01ef82b3          	add	t0,t6,t5
    80002a40:	01f2bfb3          	sltu	t6,t0,t6
    80002a44:	01f686b3          	add	a3,a3,t6
    80002a48:	007686b3          	add	a3,a3,t2
    80002a4c:	01de7e33          	and	t3,t3,t4
    80002a50:	01f6bfb3          	sltu	t6,a3,t6
    80002a54:	011688b3          	add	a7,a3,a7
    80002a58:	01cf8fb3          	add	t6,t6,t3
    80002a5c:	00d8b6b3          	sltu	a3,a7,a3
    80002a60:	011308b3          	add	a7,t1,a7
    80002a64:	01f686b3          	add	a3,a3,t6
    80002a68:	0068b333          	sltu	t1,a7,t1
    80002a6c:	40a28eb3          	sub	t4,t0,a0
    80002a70:	01d2be33          	sltu	t3,t0,t4
    80002a74:	00d30333          	add	t1,t1,a3
    80002a78:	41e886b3          	sub	a3,a7,t5
    80002a7c:	00d8bfb3          	sltu	t6,a7,a3
    80002a80:	41c686b3          	sub	a3,a3,t3
    80002a84:	00000e13          	li	t3,0
    80002a88:	01d2f663          	bgeu	t0,t4,80002a94 <__multf3+0x2a4>
    80002a8c:	411f0f33          	sub	t5,t5,a7
    80002a90:	001f3e13          	seqz	t3,t5
    80002a94:	01fe6fb3          	or	t6,t3,t6
    80002a98:	00b30333          	add	t1,t1,a1
    80002a9c:	40fe8e33          	sub	t3,t4,a5
    80002aa0:	40b685b3          	sub	a1,a3,a1
    80002aa4:	00b6b8b3          	sltu	a7,a3,a1
    80002aa8:	01ceb6b3          	sltu	a3,t4,t3
    80002aac:	40d786b3          	sub	a3,a5,a3
    80002ab0:	00000f13          	li	t5,0
    80002ab4:	01cef463          	bgeu	t4,t3,80002abc <__multf3+0x2cc>
    80002ab8:	0015bf13          	seqz	t5,a1
    80002abc:	00d585b3          	add	a1,a1,a3
    80002ac0:	00f5b6b3          	sltu	a3,a1,a5
    80002ac4:	006686b3          	add	a3,a3,t1
    80002ac8:	00de1793          	sll	a5,t3,0xd
    80002acc:	41f686b3          	sub	a3,a3,t6
    80002ad0:	011f6f33          	or	t5,t5,a7
    80002ad4:	00a7e7b3          	or	a5,a5,a0
    80002ad8:	41e686b3          	sub	a3,a3,t5
    80002adc:	00f037b3          	snez	a5,a5
    80002ae0:	033e5e13          	srl	t3,t3,0x33
    80002ae4:	00d69693          	sll	a3,a3,0xd
    80002ae8:	0335d413          	srl	s0,a1,0x33
    80002aec:	01c7e7b3          	or	a5,a5,t3
    80002af0:	00d59593          	sll	a1,a1,0xd
    80002af4:	00b7e7b3          	or	a5,a5,a1
    80002af8:	00b69593          	sll	a1,a3,0xb
    80002afc:	0086e433          	or	s0,a3,s0
    80002b00:	0205d063          	bgez	a1,80002b20 <__multf3+0x330>
    80002b04:	0017d713          	srl	a4,a5,0x1
    80002b08:	0017f793          	and	a5,a5,1
    80002b0c:	00f76733          	or	a4,a4,a5
    80002b10:	03f41793          	sll	a5,s0,0x3f
    80002b14:	00f767b3          	or	a5,a4,a5
    80002b18:	00145413          	srl	s0,s0,0x1
    80002b1c:	00080713          	mv	a4,a6
    80002b20:	00070813          	mv	a6,a4
    80002b24:	1840006f          	j	80002ca8 <__multf3+0x4b8>
    80002b28:	00956a33          	or	s4,a0,s1
    80002b2c:	080a0063          	beqz	s4,80002bac <__multf3+0x3bc>
    80002b30:	04048463          	beqz	s1,80002b78 <__multf3+0x388>
    80002b34:	00048513          	mv	a0,s1
    80002b38:	745000ef          	jal	80003a7c <__clzdi2>
    80002b3c:	0005051b          	sext.w	a0,a0
    80002b40:	ff150793          	add	a5,a0,-15
    80002b44:	03d00713          	li	a4,61
    80002b48:	0037869b          	addw	a3,a5,3
    80002b4c:	40f707bb          	subw	a5,a4,a5
    80002b50:	00d494b3          	sll	s1,s1,a3
    80002b54:	00f457b3          	srl	a5,s0,a5
    80002b58:	0097e7b3          	or	a5,a5,s1
    80002b5c:	00d414b3          	sll	s1,s0,a3
    80002b60:	ffffc937          	lui	s2,0xffffc
    80002b64:	01190913          	add	s2,s2,17 # ffffffffffffc011 <_heap_start+0xffffffff7f9f4011>
    80002b68:	00048a13          	mv	s4,s1
    80002b6c:	40a90933          	sub	s2,s2,a0
    80002b70:	00078493          	mv	s1,a5
    80002b74:	d01ff06f          	j	80002874 <__multf3+0x84>
    80002b78:	705000ef          	jal	80003a7c <__clzdi2>
    80002b7c:	0405051b          	addw	a0,a0,64
    80002b80:	ff150793          	add	a5,a0,-15
    80002b84:	03c00713          	li	a4,60
    80002b88:	faf75ee3          	bge	a4,a5,80002b44 <__multf3+0x354>
    80002b8c:	fc37879b          	addw	a5,a5,-61
    80002b90:	00f417b3          	sll	a5,s0,a5
    80002b94:	fcdff06f          	j	80002b60 <__multf3+0x370>
    80002b98:	00956a33          	or	s4,a0,s1
    80002b9c:	020a1063          	bnez	s4,80002bbc <__multf3+0x3cc>
    80002ba0:	00000493          	li	s1,0
    80002ba4:	00200b93          	li	s7,2
    80002ba8:	cd1ff06f          	j	80002878 <__multf3+0x88>
    80002bac:	00000493          	li	s1,0
    80002bb0:	00000913          	li	s2,0
    80002bb4:	00100b93          	li	s7,1
    80002bb8:	cc1ff06f          	j	80002878 <__multf3+0x88>
    80002bbc:	00050a13          	mv	s4,a0
    80002bc0:	00300b93          	li	s7,3
    80002bc4:	cb5ff06f          	j	80002878 <__multf3+0x88>
    80002bc8:	008b67b3          	or	a5,s6,s0
    80002bcc:	08078263          	beqz	a5,80002c50 <__multf3+0x460>
    80002bd0:	04040463          	beqz	s0,80002c18 <__multf3+0x428>
    80002bd4:	00040513          	mv	a0,s0
    80002bd8:	6a5000ef          	jal	80003a7c <__clzdi2>
    80002bdc:	0005051b          	sext.w	a0,a0
    80002be0:	ff150793          	add	a5,a0,-15
    80002be4:	03d00713          	li	a4,61
    80002be8:	0037861b          	addw	a2,a5,3
    80002bec:	40f707bb          	subw	a5,a4,a5
    80002bf0:	00c41433          	sll	s0,s0,a2
    80002bf4:	00fb57b3          	srl	a5,s6,a5
    80002bf8:	0087e6b3          	or	a3,a5,s0
    80002bfc:	00cb1433          	sll	s0,s6,a2
    80002c00:	ffffc737          	lui	a4,0xffffc
    80002c04:	01170713          	add	a4,a4,17 # ffffffffffffc011 <_heap_start+0xffffffff7f9f4011>
    80002c08:	00040793          	mv	a5,s0
    80002c0c:	40a70733          	sub	a4,a4,a0
    80002c10:	00068413          	mv	s0,a3
    80002c14:	cb5ff06f          	j	800028c8 <__multf3+0xd8>
    80002c18:	000b0513          	mv	a0,s6
    80002c1c:	661000ef          	jal	80003a7c <__clzdi2>
    80002c20:	0405051b          	addw	a0,a0,64
    80002c24:	ff150793          	add	a5,a0,-15
    80002c28:	03c00713          	li	a4,60
    80002c2c:	faf75ce3          	bge	a4,a5,80002be4 <__multf3+0x3f4>
    80002c30:	fc37879b          	addw	a5,a5,-61
    80002c34:	00fb16b3          	sll	a3,s6,a5
    80002c38:	fc9ff06f          	j	80002c00 <__multf3+0x410>
    80002c3c:	008b67b3          	or	a5,s6,s0
    80002c40:	02079063          	bnez	a5,80002c60 <__multf3+0x470>
    80002c44:	00000413          	li	s0,0
    80002c48:	00200693          	li	a3,2
    80002c4c:	c81ff06f          	j	800028cc <__multf3+0xdc>
    80002c50:	00000413          	li	s0,0
    80002c54:	00000713          	li	a4,0
    80002c58:	00100693          	li	a3,1
    80002c5c:	c71ff06f          	j	800028cc <__multf3+0xdc>
    80002c60:	000b0793          	mv	a5,s6
    80002c64:	00300693          	li	a3,3
    80002c68:	c65ff06f          	j	800028cc <__multf3+0xdc>
    80002c6c:	00100513          	li	a0,1
    80002c70:	00b515b3          	sll	a1,a0,a1
    80002c74:	5305f513          	and	a0,a1,1328
    80002c78:	0e051c63          	bnez	a0,80002d70 <__multf3+0x580>
    80002c7c:	2405f893          	and	a7,a1,576
    80002c80:	1c089663          	bnez	a7,80002e4c <__multf3+0x65c>
    80002c84:	0885f593          	and	a1,a1,136
    80002c88:	c6058ae3          	beqz	a1,800028fc <__multf3+0x10c>
    80002c8c:	00098613          	mv	a2,s3
    80002c90:	00200713          	li	a4,2
    80002c94:	1ae68263          	beq	a3,a4,80002e38 <__multf3+0x648>
    80002c98:	00300713          	li	a4,3
    80002c9c:	1ce68463          	beq	a3,a4,80002e64 <__multf3+0x674>
    80002ca0:	00100713          	li	a4,1
    80002ca4:	1ce68863          	beq	a3,a4,80002e74 <__multf3+0x684>
    80002ca8:	000046b7          	lui	a3,0x4
    80002cac:	fff68693          	add	a3,a3,-1 # 3fff <_min_stack+0x1fff>
    80002cb0:	00d806b3          	add	a3,a6,a3
    80002cb4:	0cd05663          	blez	a3,80002d80 <__multf3+0x590>
    80002cb8:	0077f713          	and	a4,a5,7
    80002cbc:	02070063          	beqz	a4,80002cdc <__multf3+0x4ec>
    80002cc0:	00f7f713          	and	a4,a5,15
    80002cc4:	00400593          	li	a1,4
    80002cc8:	00b70a63          	beq	a4,a1,80002cdc <__multf3+0x4ec>
    80002ccc:	00478713          	add	a4,a5,4
    80002cd0:	00f735b3          	sltu	a1,a4,a5
    80002cd4:	00b40433          	add	s0,s0,a1
    80002cd8:	00070793          	mv	a5,a4
    80002cdc:	00b41713          	sll	a4,s0,0xb
    80002ce0:	00075e63          	bgez	a4,80002cfc <__multf3+0x50c>
    80002ce4:	fff00713          	li	a4,-1
    80002ce8:	03471713          	sll	a4,a4,0x34
    80002cec:	fff70713          	add	a4,a4,-1
    80002cf0:	000046b7          	lui	a3,0x4
    80002cf4:	00e47433          	and	s0,s0,a4
    80002cf8:	00d806b3          	add	a3,a6,a3
    80002cfc:	00008737          	lui	a4,0x8
    80002d00:	ffe70713          	add	a4,a4,-2 # 7ffe <_min_stack+0x5ffe>
    80002d04:	12d74a63          	blt	a4,a3,80002e38 <__multf3+0x648>
    80002d08:	0037d793          	srl	a5,a5,0x3
    80002d0c:	03d41513          	sll	a0,s0,0x3d
    80002d10:	00f56533          	or	a0,a0,a5
    80002d14:	00345713          	srl	a4,s0,0x3
    80002d18:	04813083          	ld	ra,72(sp)
    80002d1c:	04013403          	ld	s0,64(sp)
    80002d20:	00f6161b          	sllw	a2,a2,0xf
    80002d24:	01071593          	sll	a1,a4,0x10
    80002d28:	00c6e6b3          	or	a3,a3,a2
    80002d2c:	03069693          	sll	a3,a3,0x30
    80002d30:	0105d593          	srl	a1,a1,0x10
    80002d34:	03813483          	ld	s1,56(sp)
    80002d38:	03013903          	ld	s2,48(sp)
    80002d3c:	02813983          	ld	s3,40(sp)
    80002d40:	02013a03          	ld	s4,32(sp)
    80002d44:	01813a83          	ld	s5,24(sp)
    80002d48:	01013b03          	ld	s6,16(sp)
    80002d4c:	00813b83          	ld	s7,8(sp)
    80002d50:	00d5e5b3          	or	a1,a1,a3
    80002d54:	05010113          	add	sp,sp,80
    80002d58:	00008067          	ret
    80002d5c:	00f00713          	li	a4,15
    80002d60:	10e58263          	beq	a1,a4,80002e64 <__multf3+0x674>
    80002d64:	00b00713          	li	a4,11
    80002d68:	000a8613          	mv	a2,s5
    80002d6c:	f2e580e3          	beq	a1,a4,80002c8c <__multf3+0x49c>
    80002d70:	00048413          	mv	s0,s1
    80002d74:	000a0793          	mv	a5,s4
    80002d78:	000b8693          	mv	a3,s7
    80002d7c:	f15ff06f          	j	80002c90 <__multf3+0x4a0>
    80002d80:	00100593          	li	a1,1
    80002d84:	40d585b3          	sub	a1,a1,a3
    80002d88:	07400713          	li	a4,116
    80002d8c:	0eb74463          	blt	a4,a1,80002e74 <__multf3+0x684>
    80002d90:	03f00693          	li	a3,63
    80002d94:	0005871b          	sext.w	a4,a1
    80002d98:	06b6c663          	blt	a3,a1,80002e04 <__multf3+0x614>
    80002d9c:	04000693          	li	a3,64
    80002da0:	40e686bb          	subw	a3,a3,a4
    80002da4:	00d41533          	sll	a0,s0,a3
    80002da8:	00e7d5b3          	srl	a1,a5,a4
    80002dac:	00d796b3          	sll	a3,a5,a3
    80002db0:	00b56533          	or	a0,a0,a1
    80002db4:	00d036b3          	snez	a3,a3
    80002db8:	00d56533          	or	a0,a0,a3
    80002dbc:	00e45733          	srl	a4,s0,a4
    80002dc0:	00757793          	and	a5,a0,7
    80002dc4:	02078063          	beqz	a5,80002de4 <__multf3+0x5f4>
    80002dc8:	00f57793          	and	a5,a0,15
    80002dcc:	00400693          	li	a3,4
    80002dd0:	00d78a63          	beq	a5,a3,80002de4 <__multf3+0x5f4>
    80002dd4:	00450793          	add	a5,a0,4
    80002dd8:	00a7b6b3          	sltu	a3,a5,a0
    80002ddc:	00d70733          	add	a4,a4,a3
    80002de0:	00078513          	mv	a0,a5
    80002de4:	00c71793          	sll	a5,a4,0xc
    80002de8:	0807cc63          	bltz	a5,80002e80 <__multf3+0x690>
    80002dec:	03d71793          	sll	a5,a4,0x3d
    80002df0:	00355513          	srl	a0,a0,0x3
    80002df4:	00a7e533          	or	a0,a5,a0
    80002df8:	00375713          	srl	a4,a4,0x3
    80002dfc:	00000693          	li	a3,0
    80002e00:	f19ff06f          	j	80002d18 <__multf3+0x528>
    80002e04:	fc07051b          	addw	a0,a4,-64
    80002e08:	04000813          	li	a6,64
    80002e0c:	00a45533          	srl	a0,s0,a0
    80002e10:	00000693          	li	a3,0
    80002e14:	01058863          	beq	a1,a6,80002e24 <__multf3+0x634>
    80002e18:	08000693          	li	a3,128
    80002e1c:	40e686bb          	subw	a3,a3,a4
    80002e20:	00d416b3          	sll	a3,s0,a3
    80002e24:	00d7e6b3          	or	a3,a5,a3
    80002e28:	00d036b3          	snez	a3,a3
    80002e2c:	00d56533          	or	a0,a0,a3
    80002e30:	00000713          	li	a4,0
    80002e34:	f8dff06f          	j	80002dc0 <__multf3+0x5d0>
    80002e38:	000086b7          	lui	a3,0x8
    80002e3c:	00000713          	li	a4,0
    80002e40:	00000513          	li	a0,0
    80002e44:	fff68693          	add	a3,a3,-1 # 7fff <_min_stack+0x5fff>
    80002e48:	ed1ff06f          	j	80002d18 <__multf3+0x528>
    80002e4c:	00100713          	li	a4,1
    80002e50:	02f71713          	sll	a4,a4,0x2f
    80002e54:	000086b7          	lui	a3,0x8
    80002e58:	fff68693          	add	a3,a3,-1 # 7fff <_min_stack+0x5fff>
    80002e5c:	00000613          	li	a2,0
    80002e60:	eb9ff06f          	j	80002d18 <__multf3+0x528>
    80002e64:	00100713          	li	a4,1
    80002e68:	02f71713          	sll	a4,a4,0x2f
    80002e6c:	00000513          	li	a0,0
    80002e70:	fe5ff06f          	j	80002e54 <__multf3+0x664>
    80002e74:	00000713          	li	a4,0
    80002e78:	00000513          	li	a0,0
    80002e7c:	f81ff06f          	j	80002dfc <__multf3+0x60c>
    80002e80:	00000713          	li	a4,0
    80002e84:	00000513          	li	a0,0
    80002e88:	00100693          	li	a3,1
    80002e8c:	e8dff06f          	j	80002d18 <__multf3+0x528>

0000000080002e90 <__subtf3>:
    80002e90:	fff00893          	li	a7,-1
    80002e94:	fd010113          	add	sp,sp,-48
    80002e98:	0108d893          	srl	a7,a7,0x10
    80002e9c:	00008337          	lui	t1,0x8
    80002ea0:	0305de93          	srl	t4,a1,0x30
    80002ea4:	fff30313          	add	t1,t1,-1 # 7fff <_min_stack+0x5fff>
    80002ea8:	0306d813          	srl	a6,a3,0x30
    80002eac:	00913c23          	sd	s1,24(sp)
    80002eb0:	03f6de13          	srl	t3,a3,0x3f
    80002eb4:	03f5d493          	srl	s1,a1,0x3f
    80002eb8:	0116f6b3          	and	a3,a3,a7
    80002ebc:	0115f5b3          	and	a1,a1,a7
    80002ec0:	00359713          	sll	a4,a1,0x3
    80002ec4:	03d65893          	srl	a7,a2,0x3d
    80002ec8:	03d55593          	srl	a1,a0,0x3d
    80002ecc:	01213823          	sd	s2,16(sp)
    80002ed0:	006efeb3          	and	t4,t4,t1
    80002ed4:	00369693          	sll	a3,a3,0x3
    80002ed8:	02113423          	sd	ra,40(sp)
    80002edc:	02813023          	sd	s0,32(sp)
    80002ee0:	01313423          	sd	s3,8(sp)
    80002ee4:	00687833          	and	a6,a6,t1
    80002ee8:	000e8913          	mv	s2,t4
    80002eec:	00e5e5b3          	or	a1,a1,a4
    80002ef0:	00351513          	sll	a0,a0,0x3
    80002ef4:	00d8e8b3          	or	a7,a7,a3
    80002ef8:	00361613          	sll	a2,a2,0x3
    80002efc:	00681663          	bne	a6,t1,80002f08 <__subtf3+0x78>
    80002f00:	00c8e7b3          	or	a5,a7,a2
    80002f04:	00079463          	bnez	a5,80002f0c <__subtf3+0x7c>
    80002f08:	001e4e13          	xor	t3,t3,1
    80002f0c:	410e873b          	subw	a4,t4,a6
    80002f10:	00008337          	lui	t1,0x8
    80002f14:	0007069b          	sext.w	a3,a4
    80002f18:	fff30313          	add	t1,t1,-1 # 7fff <_min_stack+0x5fff>
    80002f1c:	2c9e1063          	bne	t3,s1,800031dc <__subtf3+0x34c>
    80002f20:	12d05c63          	blez	a3,80003058 <__subtf3+0x1c8>
    80002f24:	08081c63          	bnez	a6,80002fbc <__subtf3+0x12c>
    80002f28:	00c8e7b3          	or	a5,a7,a2
    80002f2c:	06078463          	beqz	a5,80002f94 <__subtf3+0x104>
    80002f30:	fff7069b          	addw	a3,a4,-1
    80002f34:	04069e63          	bnez	a3,80002f90 <__subtf3+0x100>
    80002f38:	00c50633          	add	a2,a0,a2
    80002f3c:	00a637b3          	sltu	a5,a2,a0
    80002f40:	011585b3          	add	a1,a1,a7
    80002f44:	00060513          	mv	a0,a2
    80002f48:	00f585b3          	add	a1,a1,a5
    80002f4c:	00c59793          	sll	a5,a1,0xc
    80002f50:	0407d263          	bgez	a5,80002f94 <__subtf3+0x104>
    80002f54:	000087b7          	lui	a5,0x8
    80002f58:	00190913          	add	s2,s2,1
    80002f5c:	fff78793          	add	a5,a5,-1 # 7fff <_min_stack+0x5fff>
    80002f60:	64f90063          	beq	s2,a5,800035a0 <__subtf3+0x710>
    80002f64:	fff00793          	li	a5,-1
    80002f68:	03379793          	sll	a5,a5,0x33
    80002f6c:	fff78793          	add	a5,a5,-1
    80002f70:	00f5f733          	and	a4,a1,a5
    80002f74:	00155693          	srl	a3,a0,0x1
    80002f78:	00157793          	and	a5,a0,1
    80002f7c:	00f6e6b3          	or	a3,a3,a5
    80002f80:	03f71793          	sll	a5,a4,0x3f
    80002f84:	00d7e533          	or	a0,a5,a3
    80002f88:	00175593          	srl	a1,a4,0x1
    80002f8c:	0080006f          	j	80002f94 <__subtf3+0x104>
    80002f90:	026e9e63          	bne	t4,t1,80002fcc <__subtf3+0x13c>
    80002f94:	00757793          	and	a5,a0,7
    80002f98:	60078863          	beqz	a5,800035a8 <__subtf3+0x718>
    80002f9c:	00f57793          	and	a5,a0,15
    80002fa0:	00400713          	li	a4,4
    80002fa4:	60e78263          	beq	a5,a4,800035a8 <__subtf3+0x718>
    80002fa8:	00450793          	add	a5,a0,4
    80002fac:	00a7b733          	sltu	a4,a5,a0
    80002fb0:	00e585b3          	add	a1,a1,a4
    80002fb4:	00078513          	mv	a0,a5
    80002fb8:	5f00006f          	j	800035a8 <__subtf3+0x718>
    80002fbc:	fc6e8ce3          	beq	t4,t1,80002f94 <__subtf3+0x104>
    80002fc0:	00100793          	li	a5,1
    80002fc4:	03379793          	sll	a5,a5,0x33
    80002fc8:	00f8e8b3          	or	a7,a7,a5
    80002fcc:	07400793          	li	a5,116
    80002fd0:	06d7ce63          	blt	a5,a3,8000304c <__subtf3+0x1bc>
    80002fd4:	03f00793          	li	a5,63
    80002fd8:	04d7c063          	blt	a5,a3,80003018 <__subtf3+0x188>
    80002fdc:	04000793          	li	a5,64
    80002fe0:	40d787bb          	subw	a5,a5,a3
    80002fe4:	00f89733          	sll	a4,a7,a5
    80002fe8:	00d65833          	srl	a6,a2,a3
    80002fec:	00f617b3          	sll	a5,a2,a5
    80002ff0:	01076733          	or	a4,a4,a6
    80002ff4:	00f037b3          	snez	a5,a5
    80002ff8:	00f76733          	or	a4,a4,a5
    80002ffc:	00d8d6b3          	srl	a3,a7,a3
    80003000:	00a707b3          	add	a5,a4,a0
    80003004:	00b686b3          	add	a3,a3,a1
    80003008:	00e7b733          	sltu	a4,a5,a4
    8000300c:	00078513          	mv	a0,a5
    80003010:	00e685b3          	add	a1,a3,a4
    80003014:	f39ff06f          	j	80002f4c <__subtf3+0xbc>
    80003018:	fc06871b          	addw	a4,a3,-64
    8000301c:	04000813          	li	a6,64
    80003020:	00e8d733          	srl	a4,a7,a4
    80003024:	00000793          	li	a5,0
    80003028:	01068863          	beq	a3,a6,80003038 <__subtf3+0x1a8>
    8000302c:	08000793          	li	a5,128
    80003030:	40d787bb          	subw	a5,a5,a3
    80003034:	00f897b3          	sll	a5,a7,a5
    80003038:	00c7e7b3          	or	a5,a5,a2
    8000303c:	00f037b3          	snez	a5,a5
    80003040:	00f76733          	or	a4,a4,a5
    80003044:	00000693          	li	a3,0
    80003048:	fb9ff06f          	j	80003000 <__subtf3+0x170>
    8000304c:	00c8e733          	or	a4,a7,a2
    80003050:	00e03733          	snez	a4,a4
    80003054:	ff1ff06f          	j	80003044 <__subtf3+0x1b4>
    80003058:	0e068663          	beqz	a3,80003144 <__subtf3+0x2b4>
    8000305c:	040e9463          	bnez	t4,800030a4 <__subtf3+0x214>
    80003060:	00a5e7b3          	or	a5,a1,a0
    80003064:	02078863          	beqz	a5,80003094 <__subtf3+0x204>
    80003068:	fff74713          	not	a4,a4
    8000306c:	0007071b          	sext.w	a4,a4
    80003070:	02071063          	bnez	a4,80003090 <__subtf3+0x200>
    80003074:	00c50633          	add	a2,a0,a2
    80003078:	00a637b3          	sltu	a5,a2,a0
    8000307c:	011585b3          	add	a1,a1,a7
    80003080:	00060513          	mv	a0,a2
    80003084:	00f585b3          	add	a1,a1,a5
    80003088:	00080913          	mv	s2,a6
    8000308c:	ec1ff06f          	j	80002f4c <__subtf3+0xbc>
    80003090:	02681463          	bne	a6,t1,800030b8 <__subtf3+0x228>
    80003094:	00088593          	mv	a1,a7
    80003098:	00060513          	mv	a0,a2
    8000309c:	00080913          	mv	s2,a6
    800030a0:	ef5ff06f          	j	80002f94 <__subtf3+0x104>
    800030a4:	fe6808e3          	beq	a6,t1,80003094 <__subtf3+0x204>
    800030a8:	00100793          	li	a5,1
    800030ac:	03379793          	sll	a5,a5,0x33
    800030b0:	40e0073b          	negw	a4,a4
    800030b4:	00f5e5b3          	or	a1,a1,a5
    800030b8:	07400793          	li	a5,116
    800030bc:	06e7ce63          	blt	a5,a4,80003138 <__subtf3+0x2a8>
    800030c0:	03f00793          	li	a5,63
    800030c4:	04e7c063          	blt	a5,a4,80003104 <__subtf3+0x274>
    800030c8:	04000693          	li	a3,64
    800030cc:	40e686bb          	subw	a3,a3,a4
    800030d0:	00d597b3          	sll	a5,a1,a3
    800030d4:	00e55333          	srl	t1,a0,a4
    800030d8:	00d516b3          	sll	a3,a0,a3
    800030dc:	0067e7b3          	or	a5,a5,t1
    800030e0:	00d036b3          	snez	a3,a3
    800030e4:	00d7e7b3          	or	a5,a5,a3
    800030e8:	00e5d733          	srl	a4,a1,a4
    800030ec:	00c78633          	add	a2,a5,a2
    800030f0:	01170733          	add	a4,a4,a7
    800030f4:	00f637b3          	sltu	a5,a2,a5
    800030f8:	00060513          	mv	a0,a2
    800030fc:	00f705b3          	add	a1,a4,a5
    80003100:	f89ff06f          	j	80003088 <__subtf3+0x1f8>
    80003104:	fc07079b          	addw	a5,a4,-64
    80003108:	04000313          	li	t1,64
    8000310c:	00f5d7b3          	srl	a5,a1,a5
    80003110:	00000693          	li	a3,0
    80003114:	00670863          	beq	a4,t1,80003124 <__subtf3+0x294>
    80003118:	08000693          	li	a3,128
    8000311c:	40e686bb          	subw	a3,a3,a4
    80003120:	00d596b3          	sll	a3,a1,a3
    80003124:	00a6e6b3          	or	a3,a3,a0
    80003128:	00d036b3          	snez	a3,a3
    8000312c:	00d7e7b3          	or	a5,a5,a3
    80003130:	00000713          	li	a4,0
    80003134:	fb9ff06f          	j	800030ec <__subtf3+0x25c>
    80003138:	00a5e7b3          	or	a5,a1,a0
    8000313c:	00f037b3          	snez	a5,a5
    80003140:	ff1ff06f          	j	80003130 <__subtf3+0x2a0>
    80003144:	001e8713          	add	a4,t4,1
    80003148:	03171793          	sll	a5,a4,0x31
    8000314c:	0327d793          	srl	a5,a5,0x32
    80003150:	06079063          	bnez	a5,800031b0 <__subtf3+0x320>
    80003154:	00a5e7b3          	or	a5,a1,a0
    80003158:	040e9263          	bnez	t4,8000319c <__subtf3+0x30c>
    8000315c:	42078463          	beqz	a5,80003584 <__subtf3+0x6f4>
    80003160:	00c8e7b3          	or	a5,a7,a2
    80003164:	e20788e3          	beqz	a5,80002f94 <__subtf3+0x104>
    80003168:	00c50633          	add	a2,a0,a2
    8000316c:	00a637b3          	sltu	a5,a2,a0
    80003170:	011585b3          	add	a1,a1,a7
    80003174:	00f585b3          	add	a1,a1,a5
    80003178:	00c59793          	sll	a5,a1,0xc
    8000317c:	00060513          	mv	a0,a2
    80003180:	e007dae3          	bgez	a5,80002f94 <__subtf3+0x104>
    80003184:	fff00793          	li	a5,-1
    80003188:	03379793          	sll	a5,a5,0x33
    8000318c:	fff78793          	add	a5,a5,-1
    80003190:	00f5f5b3          	and	a1,a1,a5
    80003194:	00100913          	li	s2,1
    80003198:	dfdff06f          	j	80002f94 <__subtf3+0x104>
    8000319c:	3e078a63          	beqz	a5,80003590 <__subtf3+0x700>
    800031a0:	00c8e633          	or	a2,a7,a2
    800031a4:	2a061463          	bnez	a2,8000344c <__subtf3+0x5bc>
    800031a8:	00030913          	mv	s2,t1
    800031ac:	de9ff06f          	j	80002f94 <__subtf3+0x104>
    800031b0:	3e670663          	beq	a4,t1,8000359c <__subtf3+0x70c>
    800031b4:	00c50633          	add	a2,a0,a2
    800031b8:	00a637b3          	sltu	a5,a2,a0
    800031bc:	011585b3          	add	a1,a1,a7
    800031c0:	00f585b3          	add	a1,a1,a5
    800031c4:	03f59793          	sll	a5,a1,0x3f
    800031c8:	00165613          	srl	a2,a2,0x1
    800031cc:	00c7e533          	or	a0,a5,a2
    800031d0:	0015d593          	srl	a1,a1,0x1
    800031d4:	00070913          	mv	s2,a4
    800031d8:	dbdff06f          	j	80002f94 <__subtf3+0x104>
    800031dc:	0ed05463          	blez	a3,800032c4 <__subtf3+0x434>
    800031e0:	08081863          	bnez	a6,80003270 <__subtf3+0x3e0>
    800031e4:	00c8e7b3          	or	a5,a7,a2
    800031e8:	da0786e3          	beqz	a5,80002f94 <__subtf3+0x104>
    800031ec:	fff7069b          	addw	a3,a4,-1
    800031f0:	02069863          	bnez	a3,80003220 <__subtf3+0x390>
    800031f4:	40c50633          	sub	a2,a0,a2
    800031f8:	00c537b3          	sltu	a5,a0,a2
    800031fc:	411585b3          	sub	a1,a1,a7
    80003200:	00060513          	mv	a0,a2
    80003204:	40f585b3          	sub	a1,a1,a5
    80003208:	00c59793          	sll	a5,a1,0xc
    8000320c:	d807d4e3          	bgez	a5,80002f94 <__subtf3+0x104>
    80003210:	00d59413          	sll	s0,a1,0xd
    80003214:	00d45413          	srl	s0,s0,0xd
    80003218:	00050993          	mv	s3,a0
    8000321c:	2780006f          	j	80003494 <__subtf3+0x604>
    80003220:	d66e8ae3          	beq	t4,t1,80002f94 <__subtf3+0x104>
    80003224:	07400793          	li	a5,116
    80003228:	08d7c863          	blt	a5,a3,800032b8 <__subtf3+0x428>
    8000322c:	03f00793          	li	a5,63
    80003230:	04d7ca63          	blt	a5,a3,80003284 <__subtf3+0x3f4>
    80003234:	04000713          	li	a4,64
    80003238:	40d7073b          	subw	a4,a4,a3
    8000323c:	00e897b3          	sll	a5,a7,a4
    80003240:	00d65833          	srl	a6,a2,a3
    80003244:	00e61733          	sll	a4,a2,a4
    80003248:	0107e7b3          	or	a5,a5,a6
    8000324c:	00e03733          	snez	a4,a4
    80003250:	00e7e7b3          	or	a5,a5,a4
    80003254:	00d8d6b3          	srl	a3,a7,a3
    80003258:	40f507b3          	sub	a5,a0,a5
    8000325c:	00f53733          	sltu	a4,a0,a5
    80003260:	40d586b3          	sub	a3,a1,a3
    80003264:	00078513          	mv	a0,a5
    80003268:	40e685b3          	sub	a1,a3,a4
    8000326c:	f9dff06f          	j	80003208 <__subtf3+0x378>
    80003270:	d26e82e3          	beq	t4,t1,80002f94 <__subtf3+0x104>
    80003274:	00100793          	li	a5,1
    80003278:	03379793          	sll	a5,a5,0x33
    8000327c:	00f8e8b3          	or	a7,a7,a5
    80003280:	fa5ff06f          	j	80003224 <__subtf3+0x394>
    80003284:	fc06879b          	addw	a5,a3,-64
    80003288:	04000813          	li	a6,64
    8000328c:	00f8d7b3          	srl	a5,a7,a5
    80003290:	00000713          	li	a4,0
    80003294:	01068863          	beq	a3,a6,800032a4 <__subtf3+0x414>
    80003298:	08000713          	li	a4,128
    8000329c:	40d7073b          	subw	a4,a4,a3
    800032a0:	00e89733          	sll	a4,a7,a4
    800032a4:	00c76733          	or	a4,a4,a2
    800032a8:	00e03733          	snez	a4,a4
    800032ac:	00e7e7b3          	or	a5,a5,a4
    800032b0:	00000693          	li	a3,0
    800032b4:	fa5ff06f          	j	80003258 <__subtf3+0x3c8>
    800032b8:	00c8e7b3          	or	a5,a7,a2
    800032bc:	00f037b3          	snez	a5,a5
    800032c0:	ff1ff06f          	j	800032b0 <__subtf3+0x420>
    800032c4:	0e068863          	beqz	a3,800033b4 <__subtf3+0x524>
    800032c8:	040e9663          	bnez	t4,80003314 <__subtf3+0x484>
    800032cc:	00a5e7b3          	or	a5,a1,a0
    800032d0:	02078a63          	beqz	a5,80003304 <__subtf3+0x474>
    800032d4:	fff74713          	not	a4,a4
    800032d8:	0007071b          	sext.w	a4,a4
    800032dc:	02071263          	bnez	a4,80003300 <__subtf3+0x470>
    800032e0:	40a607b3          	sub	a5,a2,a0
    800032e4:	40b885b3          	sub	a1,a7,a1
    800032e8:	00f63633          	sltu	a2,a2,a5
    800032ec:	00078513          	mv	a0,a5
    800032f0:	40c585b3          	sub	a1,a1,a2
    800032f4:	00080913          	mv	s2,a6
    800032f8:	000e0493          	mv	s1,t3
    800032fc:	f0dff06f          	j	80003208 <__subtf3+0x378>
    80003300:	02681463          	bne	a6,t1,80003328 <__subtf3+0x498>
    80003304:	00088593          	mv	a1,a7
    80003308:	00060513          	mv	a0,a2
    8000330c:	00080913          	mv	s2,a6
    80003310:	0d00006f          	j	800033e0 <__subtf3+0x550>
    80003314:	fe6808e3          	beq	a6,t1,80003304 <__subtf3+0x474>
    80003318:	00100793          	li	a5,1
    8000331c:	03379793          	sll	a5,a5,0x33
    80003320:	40e0073b          	negw	a4,a4
    80003324:	00f5e5b3          	or	a1,a1,a5
    80003328:	07400793          	li	a5,116
    8000332c:	06e7ce63          	blt	a5,a4,800033a8 <__subtf3+0x518>
    80003330:	03f00793          	li	a5,63
    80003334:	04e7c063          	blt	a5,a4,80003374 <__subtf3+0x4e4>
    80003338:	04000693          	li	a3,64
    8000333c:	40e686bb          	subw	a3,a3,a4
    80003340:	00d597b3          	sll	a5,a1,a3
    80003344:	00e55333          	srl	t1,a0,a4
    80003348:	00d516b3          	sll	a3,a0,a3
    8000334c:	0067e7b3          	or	a5,a5,t1
    80003350:	00d036b3          	snez	a3,a3
    80003354:	00d7e7b3          	or	a5,a5,a3
    80003358:	00e5d733          	srl	a4,a1,a4
    8000335c:	40f607b3          	sub	a5,a2,a5
    80003360:	40e88733          	sub	a4,a7,a4
    80003364:	00f635b3          	sltu	a1,a2,a5
    80003368:	00078513          	mv	a0,a5
    8000336c:	40b705b3          	sub	a1,a4,a1
    80003370:	f85ff06f          	j	800032f4 <__subtf3+0x464>
    80003374:	fc07079b          	addw	a5,a4,-64
    80003378:	04000313          	li	t1,64
    8000337c:	00f5d7b3          	srl	a5,a1,a5
    80003380:	00000693          	li	a3,0
    80003384:	00670863          	beq	a4,t1,80003394 <__subtf3+0x504>
    80003388:	08000693          	li	a3,128
    8000338c:	40e686bb          	subw	a3,a3,a4
    80003390:	00d596b3          	sll	a3,a1,a3
    80003394:	00a6e6b3          	or	a3,a3,a0
    80003398:	00d036b3          	snez	a3,a3
    8000339c:	00d7e7b3          	or	a5,a5,a3
    800033a0:	00000713          	li	a4,0
    800033a4:	fb9ff06f          	j	8000335c <__subtf3+0x4cc>
    800033a8:	00a5e7b3          	or	a5,a1,a0
    800033ac:	00f037b3          	snez	a5,a5
    800033b0:	ff1ff06f          	j	800033a0 <__subtf3+0x510>
    800033b4:	001e8793          	add	a5,t4,1
    800033b8:	03179713          	sll	a4,a5,0x31
    800033bc:	03275713          	srl	a4,a4,0x32
    800033c0:	0a071263          	bnez	a4,80003464 <__subtf3+0x5d4>
    800033c4:	00c8e7b3          	or	a5,a7,a2
    800033c8:	00a5e733          	or	a4,a1,a0
    800033cc:	060e9263          	bnez	t4,80003430 <__subtf3+0x5a0>
    800033d0:	00071c63          	bnez	a4,800033e8 <__subtf3+0x558>
    800033d4:	26078863          	beqz	a5,80003644 <__subtf3+0x7b4>
    800033d8:	00088593          	mv	a1,a7
    800033dc:	00060513          	mv	a0,a2
    800033e0:	000e0493          	mv	s1,t3
    800033e4:	bb1ff06f          	j	80002f94 <__subtf3+0x104>
    800033e8:	ba0786e3          	beqz	a5,80002f94 <__subtf3+0x104>
    800033ec:	40c50733          	sub	a4,a0,a2
    800033f0:	00e536b3          	sltu	a3,a0,a4
    800033f4:	411587b3          	sub	a5,a1,a7
    800033f8:	40d787b3          	sub	a5,a5,a3
    800033fc:	00c79693          	sll	a3,a5,0xc
    80003400:	0006de63          	bgez	a3,8000341c <__subtf3+0x58c>
    80003404:	40a607b3          	sub	a5,a2,a0
    80003408:	40b885b3          	sub	a1,a7,a1
    8000340c:	00f63633          	sltu	a2,a2,a5
    80003410:	00078513          	mv	a0,a5
    80003414:	40c585b3          	sub	a1,a1,a2
    80003418:	fc9ff06f          	j	800033e0 <__subtf3+0x550>
    8000341c:	00f76533          	or	a0,a4,a5
    80003420:	22050a63          	beqz	a0,80003654 <__subtf3+0x7c4>
    80003424:	00078593          	mv	a1,a5
    80003428:	00070513          	mv	a0,a4
    8000342c:	b69ff06f          	j	80002f94 <__subtf3+0x104>
    80003430:	00071c63          	bnez	a4,80003448 <__subtf3+0x5b8>
    80003434:	00078c63          	beqz	a5,8000344c <__subtf3+0x5bc>
    80003438:	00088593          	mv	a1,a7
    8000343c:	00060513          	mv	a0,a2
    80003440:	000e0493          	mv	s1,t3
    80003444:	d65ff06f          	j	800031a8 <__subtf3+0x318>
    80003448:	d60780e3          	beqz	a5,800031a8 <__subtf3+0x318>
    8000344c:	00100593          	li	a1,1
    80003450:	00000493          	li	s1,0
    80003454:	03259593          	sll	a1,a1,0x32
    80003458:	00000513          	li	a0,0
    8000345c:	00030913          	mv	s2,t1
    80003460:	1480006f          	j	800035a8 <__subtf3+0x718>
    80003464:	40c507b3          	sub	a5,a0,a2
    80003468:	00f53733          	sltu	a4,a0,a5
    8000346c:	41158433          	sub	s0,a1,a7
    80003470:	40e40433          	sub	s0,s0,a4
    80003474:	00c41713          	sll	a4,s0,0xc
    80003478:	00078993          	mv	s3,a5
    8000347c:	08075063          	bgez	a4,800034fc <__subtf3+0x66c>
    80003480:	40a609b3          	sub	s3,a2,a0
    80003484:	40b88433          	sub	s0,a7,a1
    80003488:	01363633          	sltu	a2,a2,s3
    8000348c:	40c40433          	sub	s0,s0,a2
    80003490:	000e0493          	mv	s1,t3
    80003494:	08040063          	beqz	s0,80003514 <__subtf3+0x684>
    80003498:	00040513          	mv	a0,s0
    8000349c:	5e0000ef          	jal	80003a7c <__clzdi2>
    800034a0:	ff45069b          	addw	a3,a0,-12
    800034a4:	04000593          	li	a1,64
    800034a8:	40d585bb          	subw	a1,a1,a3
    800034ac:	00d41433          	sll	s0,s0,a3
    800034b0:	00b9d5b3          	srl	a1,s3,a1
    800034b4:	0085e5b3          	or	a1,a1,s0
    800034b8:	00d99433          	sll	s0,s3,a3
    800034bc:	0b26c663          	blt	a3,s2,80003568 <__subtf3+0x6d8>
    800034c0:	412686bb          	subw	a3,a3,s2
    800034c4:	0016861b          	addw	a2,a3,1
    800034c8:	03f00793          	li	a5,63
    800034cc:	06c7c463          	blt	a5,a2,80003534 <__subtf3+0x6a4>
    800034d0:	04000713          	li	a4,64
    800034d4:	40c7073b          	subw	a4,a4,a2
    800034d8:	00e597b3          	sll	a5,a1,a4
    800034dc:	00c456b3          	srl	a3,s0,a2
    800034e0:	00e41733          	sll	a4,s0,a4
    800034e4:	00d7e7b3          	or	a5,a5,a3
    800034e8:	00e03733          	snez	a4,a4
    800034ec:	00e7e533          	or	a0,a5,a4
    800034f0:	00c5d5b3          	srl	a1,a1,a2
    800034f4:	00000913          	li	s2,0
    800034f8:	a9dff06f          	j	80002f94 <__subtf3+0x104>
    800034fc:	0087e7b3          	or	a5,a5,s0
    80003500:	f8079ae3          	bnez	a5,80003494 <__subtf3+0x604>
    80003504:	00000593          	li	a1,0
    80003508:	00000513          	li	a0,0
    8000350c:	00000913          	li	s2,0
    80003510:	13c0006f          	j	8000364c <__subtf3+0x7bc>
    80003514:	00098513          	mv	a0,s3
    80003518:	564000ef          	jal	80003a7c <__clzdi2>
    8000351c:	0345069b          	addw	a3,a0,52
    80003520:	03f00793          	li	a5,63
    80003524:	f8d7d0e3          	bge	a5,a3,800034a4 <__subtf3+0x614>
    80003528:	ff45059b          	addw	a1,a0,-12
    8000352c:	00b995b3          	sll	a1,s3,a1
    80003530:	f8dff06f          	j	800034bc <__subtf3+0x62c>
    80003534:	fc16869b          	addw	a3,a3,-63
    80003538:	00d5d7b3          	srl	a5,a1,a3
    8000353c:	04000693          	li	a3,64
    80003540:	00000713          	li	a4,0
    80003544:	00d60863          	beq	a2,a3,80003554 <__subtf3+0x6c4>
    80003548:	08000713          	li	a4,128
    8000354c:	40c7073b          	subw	a4,a4,a2
    80003550:	00e59733          	sll	a4,a1,a4
    80003554:	00e46733          	or	a4,s0,a4
    80003558:	00e03733          	snez	a4,a4
    8000355c:	00e7e533          	or	a0,a5,a4
    80003560:	00000593          	li	a1,0
    80003564:	f91ff06f          	j	800034f4 <__subtf3+0x664>
    80003568:	fff00793          	li	a5,-1
    8000356c:	03379793          	sll	a5,a5,0x33
    80003570:	fff78793          	add	a5,a5,-1
    80003574:	40d90933          	sub	s2,s2,a3
    80003578:	00f5f5b3          	and	a1,a1,a5
    8000357c:	00040513          	mv	a0,s0
    80003580:	a15ff06f          	j	80002f94 <__subtf3+0x104>
    80003584:	00088593          	mv	a1,a7
    80003588:	00060513          	mv	a0,a2
    8000358c:	a09ff06f          	j	80002f94 <__subtf3+0x104>
    80003590:	00088593          	mv	a1,a7
    80003594:	00060513          	mv	a0,a2
    80003598:	c11ff06f          	j	800031a8 <__subtf3+0x318>
    8000359c:	00070913          	mv	s2,a4
    800035a0:	00000593          	li	a1,0
    800035a4:	00000513          	li	a0,0
    800035a8:	00c59793          	sll	a5,a1,0xc
    800035ac:	0207d263          	bgez	a5,800035d0 <__subtf3+0x740>
    800035b0:	000087b7          	lui	a5,0x8
    800035b4:	00190913          	add	s2,s2,1
    800035b8:	fff78793          	add	a5,a5,-1 # 7fff <_min_stack+0x5fff>
    800035bc:	0af90063          	beq	s2,a5,8000365c <__subtf3+0x7cc>
    800035c0:	fff00793          	li	a5,-1
    800035c4:	03379793          	sll	a5,a5,0x33
    800035c8:	fff78793          	add	a5,a5,-1
    800035cc:	00f5f5b3          	and	a1,a1,a5
    800035d0:	00355793          	srl	a5,a0,0x3
    800035d4:	03d59513          	sll	a0,a1,0x3d
    800035d8:	00f56533          	or	a0,a0,a5
    800035dc:	000087b7          	lui	a5,0x8
    800035e0:	fff78793          	add	a5,a5,-1 # 7fff <_min_stack+0x5fff>
    800035e4:	0035d593          	srl	a1,a1,0x3
    800035e8:	02f91063          	bne	s2,a5,80003608 <__subtf3+0x778>
    800035ec:	00b56533          	or	a0,a0,a1
    800035f0:	00000593          	li	a1,0
    800035f4:	00050a63          	beqz	a0,80003608 <__subtf3+0x778>
    800035f8:	00100593          	li	a1,1
    800035fc:	02f59593          	sll	a1,a1,0x2f
    80003600:	00000513          	li	a0,0
    80003604:	00000493          	li	s1,0
    80003608:	03191793          	sll	a5,s2,0x31
    8000360c:	02813083          	ld	ra,40(sp)
    80003610:	02013403          	ld	s0,32(sp)
    80003614:	00f4971b          	sllw	a4,s1,0xf
    80003618:	0317d793          	srl	a5,a5,0x31
    8000361c:	01059593          	sll	a1,a1,0x10
    80003620:	00e7e7b3          	or	a5,a5,a4
    80003624:	03079793          	sll	a5,a5,0x30
    80003628:	0105d593          	srl	a1,a1,0x10
    8000362c:	01813483          	ld	s1,24(sp)
    80003630:	01013903          	ld	s2,16(sp)
    80003634:	00813983          	ld	s3,8(sp)
    80003638:	00f5e5b3          	or	a1,a1,a5
    8000363c:	03010113          	add	sp,sp,48
    80003640:	00008067          	ret
    80003644:	00000593          	li	a1,0
    80003648:	00000513          	li	a0,0
    8000364c:	00000493          	li	s1,0
    80003650:	f59ff06f          	j	800035a8 <__subtf3+0x718>
    80003654:	00000593          	li	a1,0
    80003658:	ff5ff06f          	j	8000364c <__subtf3+0x7bc>
    8000365c:	00000593          	li	a1,0
    80003660:	00000513          	li	a0,0
    80003664:	f6dff06f          	j	800035d0 <__subtf3+0x740>

0000000080003668 <__fixtfdi>:
    80003668:	00159793          	sll	a5,a1,0x1
    8000366c:	00004737          	lui	a4,0x4
    80003670:	0317d793          	srl	a5,a5,0x31
    80003674:	ffe70713          	add	a4,a4,-2 # 3ffe <_min_stack+0x1ffe>
    80003678:	03f5d613          	srl	a2,a1,0x3f
    8000367c:	08f75463          	bge	a4,a5,80003704 <__fixtfdi+0x9c>
    80003680:	00004737          	lui	a4,0x4
    80003684:	03d70713          	add	a4,a4,61 # 403d <_min_stack+0x203d>
    80003688:	00f75a63          	bge	a4,a5,8000369c <__fixtfdi+0x34>
    8000368c:	fff00513          	li	a0,-1
    80003690:	00155513          	srl	a0,a0,0x1
    80003694:	00a60533          	add	a0,a2,a0
    80003698:	00008067          	ret
    8000369c:	01059593          	sll	a1,a1,0x10
    800036a0:	00100713          	li	a4,1
    800036a4:	03071713          	sll	a4,a4,0x30
    800036a8:	0105d593          	srl	a1,a1,0x10
    800036ac:	00e5e5b3          	or	a1,a1,a4
    800036b0:	00004737          	lui	a4,0x4
    800036b4:	06f70713          	add	a4,a4,111 # 406f <_min_stack+0x206f>
    800036b8:	0007869b          	sext.w	a3,a5
    800036bc:	03f00813          	li	a6,63
    800036c0:	40f707b3          	sub	a5,a4,a5
    800036c4:	02f84663          	blt	a6,a5,800036f0 <__fixtfdi+0x88>
    800036c8:	ffffc7b7          	lui	a5,0xffffc
    800036cc:	fd17879b          	addw	a5,a5,-47 # ffffffffffffbfd1 <_heap_start+0xffffffff7f9f3fd1>
    800036d0:	00f687bb          	addw	a5,a3,a5
    800036d4:	40d7073b          	subw	a4,a4,a3
    800036d8:	00f595b3          	sll	a1,a1,a5
    800036dc:	00e55533          	srl	a0,a0,a4
    800036e0:	00a5e533          	or	a0,a1,a0
    800036e4:	02060263          	beqz	a2,80003708 <__fixtfdi+0xa0>
    800036e8:	40a00533          	neg	a0,a0
    800036ec:	00008067          	ret
    800036f0:	000047b7          	lui	a5,0x4
    800036f4:	02f7879b          	addw	a5,a5,47 # 402f <_min_stack+0x202f>
    800036f8:	40d787bb          	subw	a5,a5,a3
    800036fc:	00f5d533          	srl	a0,a1,a5
    80003700:	fe5ff06f          	j	800036e4 <__fixtfdi+0x7c>
    80003704:	00000513          	li	a0,0
    80003708:	00008067          	ret

000000008000370c <__floatditf>:
    8000370c:	00050713          	mv	a4,a0
    80003710:	0a050263          	beqz	a0,800037b4 <__floatditf+0xa8>
    80003714:	43f55793          	sra	a5,a0,0x3f
    80003718:	fe010113          	add	sp,sp,-32
    8000371c:	00813823          	sd	s0,16(sp)
    80003720:	00a7c433          	xor	s0,a5,a0
    80003724:	40f40433          	sub	s0,s0,a5
    80003728:	00913423          	sd	s1,8(sp)
    8000372c:	03f55493          	srl	s1,a0,0x3f
    80003730:	00040513          	mv	a0,s0
    80003734:	00113c23          	sd	ra,24(sp)
    80003738:	344000ef          	jal	80003a7c <__clzdi2>
    8000373c:	000047b7          	lui	a5,0x4
    80003740:	03e7879b          	addw	a5,a5,62 # 403e <_min_stack+0x203e>
    80003744:	00004737          	lui	a4,0x4
    80003748:	40a787bb          	subw	a5,a5,a0
    8000374c:	06f70713          	add	a4,a4,111 # 406f <_min_stack+0x206f>
    80003750:	40f70733          	sub	a4,a4,a5
    80003754:	03f00693          	li	a3,63
    80003758:	04e6c463          	blt	a3,a4,800037a0 <__floatditf+0x94>
    8000375c:	00f00593          	li	a1,15
    80003760:	40a585bb          	subw	a1,a1,a0
    80003764:	0315051b          	addw	a0,a0,49
    80003768:	00b455b3          	srl	a1,s0,a1
    8000376c:	00a41533          	sll	a0,s0,a0
    80003770:	00048713          	mv	a4,s1
    80003774:	01813083          	ld	ra,24(sp)
    80003778:	01013403          	ld	s0,16(sp)
    8000377c:	00f7171b          	sllw	a4,a4,0xf
    80003780:	01059593          	sll	a1,a1,0x10
    80003784:	00e7e7b3          	or	a5,a5,a4
    80003788:	03079793          	sll	a5,a5,0x30
    8000378c:	0105d593          	srl	a1,a1,0x10
    80003790:	00813483          	ld	s1,8(sp)
    80003794:	00f5e5b3          	or	a1,a1,a5
    80003798:	02010113          	add	sp,sp,32
    8000379c:	00008067          	ret
    800037a0:	ff15051b          	addw	a0,a0,-15
    800037a4:	00a415b3          	sll	a1,s0,a0
    800037a8:	00048713          	mv	a4,s1
    800037ac:	00000513          	li	a0,0
    800037b0:	fc5ff06f          	j	80003774 <__floatditf+0x68>
    800037b4:	00f7171b          	sllw	a4,a4,0xf
    800037b8:	00000793          	li	a5,0
    800037bc:	00000593          	li	a1,0
    800037c0:	00e7e7b3          	or	a5,a5,a4
    800037c4:	01059593          	sll	a1,a1,0x10
    800037c8:	03079793          	sll	a5,a5,0x30
    800037cc:	0105d593          	srl	a1,a1,0x10
    800037d0:	00000513          	li	a0,0
    800037d4:	00f5e5b3          	or	a1,a1,a5
    800037d8:	00008067          	ret

00000000800037dc <__extenddftf2>:
    800037dc:	03455793          	srl	a5,a0,0x34
    800037e0:	7ff7f793          	and	a5,a5,2047
    800037e4:	fe010113          	add	sp,sp,-32
    800037e8:	00178713          	add	a4,a5,1
    800037ec:	00813823          	sd	s0,16(sp)
    800037f0:	00913423          	sd	s1,8(sp)
    800037f4:	00c51413          	sll	s0,a0,0xc
    800037f8:	00113c23          	sd	ra,24(sp)
    800037fc:	7fe77713          	and	a4,a4,2046
    80003800:	00c45413          	srl	s0,s0,0xc
    80003804:	03f55493          	srl	s1,a0,0x3f
    80003808:	04070463          	beqz	a4,80003850 <__extenddftf2+0x74>
    8000380c:	00004737          	lui	a4,0x4
    80003810:	c0070713          	add	a4,a4,-1024 # 3c00 <_min_stack+0x1c00>
    80003814:	00445593          	srl	a1,s0,0x4
    80003818:	00e787b3          	add	a5,a5,a4
    8000381c:	03c41413          	sll	s0,s0,0x3c
    80003820:	00f4951b          	sllw	a0,s1,0xf
    80003824:	01813083          	ld	ra,24(sp)
    80003828:	00a7e7b3          	or	a5,a5,a0
    8000382c:	00040513          	mv	a0,s0
    80003830:	01013403          	ld	s0,16(sp)
    80003834:	01059593          	sll	a1,a1,0x10
    80003838:	03079793          	sll	a5,a5,0x30
    8000383c:	0105d593          	srl	a1,a1,0x10
    80003840:	00813483          	ld	s1,8(sp)
    80003844:	00f5e5b3          	or	a1,a1,a5
    80003848:	02010113          	add	sp,sp,32
    8000384c:	00008067          	ret
    80003850:	04079a63          	bnez	a5,800038a4 <__extenddftf2+0xc8>
    80003854:	00000593          	li	a1,0
    80003858:	fc0404e3          	beqz	s0,80003820 <__extenddftf2+0x44>
    8000385c:	00040513          	mv	a0,s0
    80003860:	21c000ef          	jal	80003a7c <__clzdi2>
    80003864:	0005071b          	sext.w	a4,a0
    80003868:	00e00793          	li	a5,14
    8000386c:	02e7c463          	blt	a5,a4,80003894 <__extenddftf2+0xb8>
    80003870:	00f00593          	li	a1,15
    80003874:	40a585bb          	subw	a1,a1,a0
    80003878:	0315079b          	addw	a5,a0,49
    8000387c:	00b455b3          	srl	a1,s0,a1
    80003880:	00f41433          	sll	s0,s0,a5
    80003884:	000047b7          	lui	a5,0x4
    80003888:	c0c7879b          	addw	a5,a5,-1012 # 3c0c <_min_stack+0x1c0c>
    8000388c:	40a787bb          	subw	a5,a5,a0
    80003890:	f91ff06f          	j	80003820 <__extenddftf2+0x44>
    80003894:	ff15059b          	addw	a1,a0,-15
    80003898:	00b415b3          	sll	a1,s0,a1
    8000389c:	00000413          	li	s0,0
    800038a0:	fe5ff06f          	j	80003884 <__extenddftf2+0xa8>
    800038a4:	00000593          	li	a1,0
    800038a8:	00040c63          	beqz	s0,800038c0 <__extenddftf2+0xe4>
    800038ac:	00100793          	li	a5,1
    800038b0:	00445593          	srl	a1,s0,0x4
    800038b4:	02f79793          	sll	a5,a5,0x2f
    800038b8:	03c41413          	sll	s0,s0,0x3c
    800038bc:	00f5e5b3          	or	a1,a1,a5
    800038c0:	000087b7          	lui	a5,0x8
    800038c4:	fff78793          	add	a5,a5,-1 # 7fff <_min_stack+0x5fff>
    800038c8:	f59ff06f          	j	80003820 <__extenddftf2+0x44>

00000000800038cc <__trunctfdf2>:
    800038cc:	00159713          	sll	a4,a1,0x1
    800038d0:	03175713          	srl	a4,a4,0x31
    800038d4:	00170793          	add	a5,a4,1
    800038d8:	03f5d613          	srl	a2,a1,0x3f
    800038dc:	03179813          	sll	a6,a5,0x31
    800038e0:	01059593          	sll	a1,a1,0x10
    800038e4:	00d5d593          	srl	a1,a1,0xd
    800038e8:	03d55693          	srl	a3,a0,0x3d
    800038ec:	03285813          	srl	a6,a6,0x32
    800038f0:	00b6e6b3          	or	a3,a3,a1
    800038f4:	00351593          	sll	a1,a0,0x3
    800038f8:	0c080263          	beqz	a6,800039bc <__trunctfdf2+0xf0>
    800038fc:	ffffc7b7          	lui	a5,0xffffc
    80003900:	40078793          	add	a5,a5,1024 # ffffffffffffc400 <_heap_start+0xffffffff7f9f4400>
    80003904:	00f70733          	add	a4,a4,a5
    80003908:	7fe00793          	li	a5,2046
    8000390c:	0ee7c263          	blt	a5,a4,800039f0 <__trunctfdf2+0x124>
    80003910:	08e04863          	bgtz	a4,800039a0 <__trunctfdf2+0xd4>
    80003914:	fcc00793          	li	a5,-52
    80003918:	14f74063          	blt	a4,a5,80003a58 <__trunctfdf2+0x18c>
    8000391c:	00100793          	li	a5,1
    80003920:	03379793          	sll	a5,a5,0x33
    80003924:	03d00513          	li	a0,61
    80003928:	00f6e6b3          	or	a3,a3,a5
    8000392c:	40e50533          	sub	a0,a0,a4
    80003930:	03f00793          	li	a5,63
    80003934:	0007071b          	sext.w	a4,a4
    80003938:	02a7cc63          	blt	a5,a0,80003970 <__trunctfdf2+0xa4>
    8000393c:	03d00793          	li	a5,61
    80003940:	0037051b          	addw	a0,a4,3
    80003944:	40e787bb          	subw	a5,a5,a4
    80003948:	00f5d7b3          	srl	a5,a1,a5
    8000394c:	00a595b3          	sll	a1,a1,a0
    80003950:	00b035b3          	snez	a1,a1
    80003954:	00b7e7b3          	or	a5,a5,a1
    80003958:	00a696b3          	sll	a3,a3,a0
    8000395c:	00f6e7b3          	or	a5,a3,a5
    80003960:	00000713          	li	a4,0
    80003964:	0077f693          	and	a3,a5,7
    80003968:	08068863          	beqz	a3,800039f8 <__trunctfdf2+0x12c>
    8000396c:	0f40006f          	j	80003a60 <__trunctfdf2+0x194>
    80003970:	ffd00793          	li	a5,-3
    80003974:	40e787bb          	subw	a5,a5,a4
    80003978:	04000893          	li	a7,64
    8000397c:	00f6d7b3          	srl	a5,a3,a5
    80003980:	00000813          	li	a6,0
    80003984:	01150663          	beq	a0,a7,80003990 <__trunctfdf2+0xc4>
    80003988:	0437071b          	addw	a4,a4,67
    8000398c:	00e69833          	sll	a6,a3,a4
    80003990:	00b86833          	or	a6,a6,a1
    80003994:	01003833          	snez	a6,a6
    80003998:	0107e7b3          	or	a5,a5,a6
    8000399c:	fc5ff06f          	j	80003960 <__trunctfdf2+0x94>
    800039a0:	00751793          	sll	a5,a0,0x7
    800039a4:	00f037b3          	snez	a5,a5
    800039a8:	03c5d593          	srl	a1,a1,0x3c
    800039ac:	00b7e7b3          	or	a5,a5,a1
    800039b0:	00469693          	sll	a3,a3,0x4
    800039b4:	00f6e7b3          	or	a5,a3,a5
    800039b8:	fadff06f          	j	80003964 <__trunctfdf2+0x98>
    800039bc:	00b6e7b3          	or	a5,a3,a1
    800039c0:	00071663          	bnez	a4,800039cc <__trunctfdf2+0x100>
    800039c4:	00f037b3          	snez	a5,a5
    800039c8:	f9dff06f          	j	80003964 <__trunctfdf2+0x98>
    800039cc:	7ff00713          	li	a4,2047
    800039d0:	02078463          	beqz	a5,800039f8 <__trunctfdf2+0x12c>
    800039d4:	03c5d593          	srl	a1,a1,0x3c
    800039d8:	00469693          	sll	a3,a3,0x4
    800039dc:	00b6e6b3          	or	a3,a3,a1
    800039e0:	00100793          	li	a5,1
    800039e4:	ff86f693          	and	a3,a3,-8
    800039e8:	03679793          	sll	a5,a5,0x36
    800039ec:	fc9ff06f          	j	800039b4 <__trunctfdf2+0xe8>
    800039f0:	00000793          	li	a5,0
    800039f4:	7ff00713          	li	a4,2047
    800039f8:	00879693          	sll	a3,a5,0x8
    800039fc:	0206d063          	bgez	a3,80003a1c <__trunctfdf2+0x150>
    80003a00:	00170713          	add	a4,a4,1
    80003a04:	7ff00693          	li	a3,2047
    80003a08:	06d70663          	beq	a4,a3,80003a74 <__trunctfdf2+0x1a8>
    80003a0c:	fff00693          	li	a3,-1
    80003a10:	03769693          	sll	a3,a3,0x37
    80003a14:	fff68693          	add	a3,a3,-1
    80003a18:	00d7f7b3          	and	a5,a5,a3
    80003a1c:	7ff00693          	li	a3,2047
    80003a20:	0037d793          	srl	a5,a5,0x3
    80003a24:	00d71a63          	bne	a4,a3,80003a38 <__trunctfdf2+0x16c>
    80003a28:	00078863          	beqz	a5,80003a38 <__trunctfdf2+0x16c>
    80003a2c:	00100793          	li	a5,1
    80003a30:	03379793          	sll	a5,a5,0x33
    80003a34:	00000613          	li	a2,0
    80003a38:	7ff00693          	li	a3,2047
    80003a3c:	03469693          	sll	a3,a3,0x34
    80003a40:	03471713          	sll	a4,a4,0x34
    80003a44:	00d77733          	and	a4,a4,a3
    80003a48:	00f76733          	or	a4,a4,a5
    80003a4c:	03f61513          	sll	a0,a2,0x3f
    80003a50:	00a76533          	or	a0,a4,a0
    80003a54:	00008067          	ret
    80003a58:	00100793          	li	a5,1
    80003a5c:	00000713          	li	a4,0
    80003a60:	00f7f693          	and	a3,a5,15
    80003a64:	00400593          	li	a1,4
    80003a68:	f8b688e3          	beq	a3,a1,800039f8 <__trunctfdf2+0x12c>
    80003a6c:	00478793          	add	a5,a5,4
    80003a70:	f89ff06f          	j	800039f8 <__trunctfdf2+0x12c>
    80003a74:	00000793          	li	a5,0
    80003a78:	fa5ff06f          	j	80003a1c <__trunctfdf2+0x150>

0000000080003a7c <__clzdi2>:
    80003a7c:	03855793          	srl	a5,a0,0x38
    80003a80:	04079063          	bnez	a5,80003ac0 <__clzdi2+0x44>
    80003a84:	03800793          	li	a5,56
    80003a88:	ff878793          	add	a5,a5,-8
    80003a8c:	00078863          	beqz	a5,80003a9c <__clzdi2+0x20>
    80003a90:	00f55733          	srl	a4,a0,a5
    80003a94:	0ff77713          	zext.b	a4,a4
    80003a98:	fe0708e3          	beqz	a4,80003a88 <__clzdi2+0xc>
    80003a9c:	04000713          	li	a4,64
    80003aa0:	40f70733          	sub	a4,a4,a5
    80003aa4:	00f55533          	srl	a0,a0,a5
    80003aa8:	00003797          	auipc	a5,0x3
    80003aac:	c4078793          	add	a5,a5,-960 # 800066e8 <__clz_tab>
    80003ab0:	00a787b3          	add	a5,a5,a0
    80003ab4:	0007c503          	lbu	a0,0(a5)
    80003ab8:	40a7053b          	subw	a0,a4,a0
    80003abc:	00008067          	ret
    80003ac0:	03800793          	li	a5,56
    80003ac4:	fd9ff06f          	j	80003a9c <__clzdi2+0x20>

0000000080003ac8 <main>:
    80003ac8:	715d                	add	sp,sp,-80
    80003aca:	e0a2                	sd	s0,64(sp)
    80003acc:	fc26                	sd	s1,56(sp)
    80003ace:	f84a                	sd	s2,48(sp)
    80003ad0:	f44e                	sd	s3,40(sp)
    80003ad2:	f052                	sd	s4,32(sp)
    80003ad4:	ec56                	sd	s5,24(sp)
    80003ad6:	e85a                	sd	s6,16(sp)
    80003ad8:	e45e                	sd	s7,8(sp)
    80003ada:	e486                	sd	ra,72(sp)
    80003adc:	4481                	li	s1,0
    80003ade:	00003417          	auipc	s0,0x3
    80003ae2:	28240413          	add	s0,s0,642 # 80006d60 <argv>
    80003ae6:	00003917          	auipc	s2,0x3
    80003aea:	05a90913          	add	s2,s2,90 # 80006b40 <width>
    80003aee:	00003a17          	auipc	s4,0x3
    80003af2:	d4aa0a13          	add	s4,s4,-694 # 80006838 <__clz_tab+0x150>
    80003af6:	59fd                	li	s3,-1
    80003af8:	06400a93          	li	s5,100
    80003afc:	00003b17          	auipc	s6,0x3
    80003b00:	324b0b13          	add	s6,s6,804 # 80006e20 <debug>
    80003b04:	00003b97          	auipc	s7,0x3
    80003b08:	2ccbbb83          	ld	s7,716(s7) # 80006dd0 <_GLOBAL_OFFSET_TABLE_+0x8>
    80003b0c:	600c                	ld	a1,0(s0)
    80003b0e:	00492503          	lw	a0,4(s2)
    80003b12:	8652                	mv	a2,s4
    80003b14:	f22fc0ef          	jal	80000236 <libmin_getopt>
    80003b18:	1b351b63          	bne	a0,s3,80003cce <main+0x206>
    80003b1c:	00003797          	auipc	a5,0x3
    80003b20:	2d47b783          	ld	a5,724(a5) # 80006df0 <_GLOBAL_OFFSET_TABLE_+0x28>
    80003b24:	439c                	lw	a5,0(a5)
    80003b26:	00492703          	lw	a4,4(s2)
    80003b2a:	4681                	li	a3,0
    80003b2c:	4601                	li	a2,0
    80003b2e:	9f1d                	subw	a4,a4,a5
    80003b30:	00e92223          	sw	a4,4(s2)
    80003b34:	00379713          	sll	a4,a5,0x3
    80003b38:	601c                	ld	a5,0(s0)
    80003b3a:	08400593          	li	a1,132
    80003b3e:	00003517          	auipc	a0,0x3
    80003b42:	2e250513          	add	a0,a0,738 # 80006e20 <debug>
    80003b46:	97ba                	add	a5,a5,a4
    80003b48:	00003717          	auipc	a4,0x3
    80003b4c:	2c072e23          	sw	zero,732(a4) # 80006e24 <i>
    80003b50:	00092703          	lw	a4,0(s2)
    80003b54:	e01c                	sd	a5,0(s0)
    80003b56:	4805                	li	a6,1
    80003b58:	1ae6ce63          	blt	a3,a4,80003d14 <main+0x24c>
    80003b5c:	ce01                	beqz	a2,80003b74 <main+0xac>
    80003b5e:	00003697          	auipc	a3,0x3
    80003b62:	2c268693          	add	a3,a3,706 # 80006e20 <debug>
    80003b66:	863a                	mv	a2,a4
    80003b68:	00075363          	bgez	a4,80003b6e <main+0xa6>
    80003b6c:	4601                	li	a2,0
    80003b6e:	c2d0                	sw	a2,4(a3)
    80003b70:	0896a623          	sw	s1,140(a3)
    80003b74:	638c                	ld	a1,0(a5)
    80003b76:	1c058863          	beqz	a1,80003d46 <main+0x27e>
    80003b7a:	40000613          	li	a2,1024
    80003b7e:	00003517          	auipc	a0,0x3
    80003b82:	33250513          	add	a0,a0,818 # 80006eb0 <message>
    80003b86:	96bfd0ef          	jal	800014f0 <libmin_strncpy>
    80003b8a:	00003917          	auipc	s2,0x3
    80003b8e:	cb690913          	add	s2,s2,-842 # 80006840 <__clz_tab+0x158>
    80003b92:	00003497          	auipc	s1,0x3
    80003b96:	31e48493          	add	s1,s1,798 # 80006eb0 <message>
    80003b9a:	601c                	ld	a5,0(s0)
    80003b9c:	00878713          	add	a4,a5,8
    80003ba0:	679c                	ld	a5,8(a5)
    80003ba2:	e018                	sd	a4,0(s0)
    80003ba4:	18079363          	bnez	a5,80003d2a <main+0x262>
    80003ba8:	00003517          	auipc	a0,0x3
    80003bac:	30850513          	add	a0,a0,776 # 80006eb0 <message>
    80003bb0:	8a3fd0ef          	jal	80001452 <libmin_strlen>
    80003bb4:	00003797          	auipc	a5,0x3
    80003bb8:	6ea7ae23          	sw	a0,1788(a5) # 800072b0 <nchars>
    80003bbc:	00003417          	auipc	s0,0x3
    80003bc0:	26440413          	add	s0,s0,612 # 80006e20 <debug>
    80003bc4:	401c                	lw	a5,0(s0)
    80003bc6:	cfc9                	beqz	a5,80003c60 <main+0x198>
    80003bc8:	00003517          	auipc	a0,0x3
    80003bcc:	c9850513          	add	a0,a0,-872 # 80006860 <__clz_tab+0x178>
    80003bd0:	b8efd0ef          	jal	80000f5e <libmin_printf>
    80003bd4:	4781                	li	a5,0
    80003bd6:	07f00493          	li	s1,127
    80003bda:	00000917          	auipc	s2,0x0
    80003bde:	43690913          	add	s2,s2,1078 # 80004010 <asc_ptr>
    80003be2:	00003997          	auipc	s3,0x3
    80003be6:	c9698993          	add	s3,s3,-874 # 80006878 <__clz_tab+0x190>
    80003bea:	00003a17          	auipc	s4,0x3
    80003bee:	c96a0a13          	add	s4,s4,-874 # 80006880 <__clz_tab+0x198>
    80003bf2:	c05c                	sw	a5,4(s0)
    80003bf4:	16f4d363          	bge	s1,a5,80003d5a <main+0x292>
    80003bf8:	00003517          	auipc	a0,0x3
    80003bfc:	c9050513          	add	a0,a0,-880 # 80006888 <__clz_tab+0x1a0>
    80003c00:	b5efd0ef          	jal	80000f5e <libmin_printf>
    80003c04:	00003517          	auipc	a0,0x3
    80003c08:	ca450513          	add	a0,a0,-860 # 800068a8 <__clz_tab+0x1c0>
    80003c0c:	b52fd0ef          	jal	80000f5e <libmin_printf>
    80003c10:	4581                	li	a1,0
    80003c12:	44a5                	li	s1,9
    80003c14:	00003917          	auipc	s2,0x3
    80003c18:	c9c90913          	add	s2,s2,-868 # 800068b0 <__clz_tab+0x1c8>
    80003c1c:	c04c                	sw	a1,4(s0)
    80003c1e:	14b4de63          	bge	s1,a1,80003d7a <main+0x2b2>
    80003c22:	00003517          	auipc	a0,0x3
    80003c26:	c9650513          	add	a0,a0,-874 # 800068b8 <__clz_tab+0x1d0>
    80003c2a:	b34fd0ef          	jal	80000f5e <libmin_printf>
    80003c2e:	6489                	lui	s1,0x2
    80003c30:	4581                	li	a1,0
    80003c32:	43648493          	add	s1,s1,1078 # 2436 <_min_stack+0x436>
    80003c36:	00003917          	auipc	s2,0x3
    80003c3a:	c8a90913          	add	s2,s2,-886 # 800068c0 <__clz_tab+0x1d8>
    80003c3e:	00000997          	auipc	s3,0x0
    80003c42:	5d298993          	add	s3,s3,1490 # 80004210 <data_table>
    80003c46:	00003a17          	auipc	s4,0x3
    80003c4a:	c8aa0a13          	add	s4,s4,-886 # 800068d0 <__clz_tab+0x1e8>
    80003c4e:	c04c                	sw	a1,4(s0)
    80003c50:	12b4db63          	bge	s1,a1,80003d86 <main+0x2be>
    80003c54:	00003517          	auipc	a0,0x3
    80003c58:	c8450513          	add	a0,a0,-892 # 800068d8 <__clz_tab+0x1f0>
    80003c5c:	b02fd0ef          	jal	80000f5e <libmin_printf>
    80003c60:	00003797          	auipc	a5,0x3
    80003c64:	2407a623          	sw	zero,588(a5) # 80006eac <j>
    80003c68:	4781                	li	a5,0
    80003c6a:	00003497          	auipc	s1,0x3
    80003c6e:	c7648493          	add	s1,s1,-906 # 800068e0 <__clz_tab+0x1f8>
    80003c72:	00000917          	auipc	s2,0x0
    80003c76:	39e90913          	add	s2,s2,926 # 80004010 <asc_ptr>
    80003c7a:	49042703          	lw	a4,1168(s0)
    80003c7e:	c05c                	sw	a5,4(s0)
    80003c80:	14e7c163          	blt	a5,a4,80003dc2 <main+0x2fa>
    80003c84:	08c42783          	lw	a5,140(s0)
    80003c88:	c781                	beqz	a5,80003c90 <main+0x1c8>
    80003c8a:	4505                	li	a0,1
    80003c8c:	d8afc0ef          	jal	80000216 <libmin_fail>
    80003c90:	6909                	lui	s2,0x2
    80003c92:	4781                	li	a5,0
    80003c94:	00003497          	auipc	s1,0x3
    80003c98:	62448493          	add	s1,s1,1572 # 800072b8 <line>
    80003c9c:	43690913          	add	s2,s2,1078 # 2436 <_min_stack+0x436>
    80003ca0:	00003a17          	auipc	s4,0x3
    80003ca4:	188a0a13          	add	s4,s4,392 # 80006e28 <print>
    80003ca8:	49042703          	lw	a4,1168(s0)
    80003cac:	c05c                	sw	a5,4(s0)
    80003cae:	14e7c263          	blt	a5,a4,80003df2 <main+0x32a>
    80003cb2:	869fd0ef          	jal	8000151a <libmin_success>
    80003cb6:	60a6                	ld	ra,72(sp)
    80003cb8:	6406                	ld	s0,64(sp)
    80003cba:	74e2                	ld	s1,56(sp)
    80003cbc:	7942                	ld	s2,48(sp)
    80003cbe:	79a2                	ld	s3,40(sp)
    80003cc0:	7a02                	ld	s4,32(sp)
    80003cc2:	6ae2                	ld	s5,24(sp)
    80003cc4:	6b42                	ld	s6,16(sp)
    80003cc6:	6ba2                	ld	s7,8(sp)
    80003cc8:	4501                	li	a0,0
    80003cca:	6161                	add	sp,sp,80
    80003ccc:	8082                	ret
    80003cce:	03550063          	beq	a0,s5,80003cee <main+0x226>
    80003cd2:	07700793          	li	a5,119
    80003cd6:	02f50063          	beq	a0,a5,80003cf6 <main+0x22e>
    80003cda:	00003517          	auipc	a0,0x3
    80003cde:	b3e50513          	add	a0,a0,-1218 # 80006818 <__clz_tab+0x130>
    80003ce2:	a7cfd0ef          	jal	80000f5e <libmin_printf>
    80003ce6:	4505                	li	a0,1
    80003ce8:	d2efc0ef          	jal	80000216 <libmin_fail>
    80003cec:	b505                	j	80003b0c <main+0x44>
    80003cee:	4785                	li	a5,1
    80003cf0:	00fb2023          	sw	a5,0(s6)
    80003cf4:	bd21                	j	80003b0c <main+0x44>
    80003cf6:	000bb503          	ld	a0,0(s7)
    80003cfa:	c8efc0ef          	jal	80000188 <libmin_atoi>
    80003cfe:	00a92023          	sw	a0,0(s2)
    80003d02:	e0a045e3          	bgtz	a0,80003b0c <main+0x44>
    80003d06:	00003517          	auipc	a0,0x3
    80003d0a:	ae250513          	add	a0,a0,-1310 # 800067e8 <__clz_tab+0x100>
    80003d0e:	a50fd0ef          	jal	80000f5e <libmin_printf>
    80003d12:	bbed                	j	80003b0c <main+0x44>
    80003d14:	02d584bb          	mulw	s1,a1,a3
    80003d18:	2685                	addw	a3,a3,1
    80003d1a:	02e4c4bb          	divw	s1,s1,a4
    80003d1e:	00950633          	add	a2,a0,s1
    80003d22:	01060423          	sb	a6,8(a2)
    80003d26:	4605                	li	a2,1
    80003d28:	bd05                	j	80003b58 <main+0x90>
    80003d2a:	85ca                	mv	a1,s2
    80003d2c:	40000613          	li	a2,1024
    80003d30:	8526                	mv	a0,s1
    80003d32:	f36fd0ef          	jal	80001468 <libmin_strncat>
    80003d36:	601c                	ld	a5,0(s0)
    80003d38:	40000613          	li	a2,1024
    80003d3c:	8526                	mv	a0,s1
    80003d3e:	638c                	ld	a1,0(a5)
    80003d40:	f28fd0ef          	jal	80001468 <libmin_strncat>
    80003d44:	bd99                	j	80003b9a <main+0xd2>
    80003d46:	00003517          	auipc	a0,0x3
    80003d4a:	b0250513          	add	a0,a0,-1278 # 80006848 <__clz_tab+0x160>
    80003d4e:	a10fd0ef          	jal	80000f5e <libmin_printf>
    80003d52:	4505                	li	a0,1
    80003d54:	cc2fc0ef          	jal	80000216 <libmin_fail>
    80003d58:	b595                	j	80003bbc <main+0xf4>
    80003d5a:	078a                	sll	a5,a5,0x2
    80003d5c:	97ca                	add	a5,a5,s2
    80003d5e:	438c                	lw	a1,0(a5)
    80003d60:	854e                	mv	a0,s3
    80003d62:	9fcfd0ef          	jal	80000f5e <libmin_printf>
    80003d66:	405c                	lw	a5,4(s0)
    80003d68:	2785                	addw	a5,a5,1
    80003d6a:	8b9d                	and	a5,a5,7
    80003d6c:	e781                	bnez	a5,80003d74 <main+0x2ac>
    80003d6e:	8552                	mv	a0,s4
    80003d70:	9eefd0ef          	jal	80000f5e <libmin_printf>
    80003d74:	405c                	lw	a5,4(s0)
    80003d76:	2785                	addw	a5,a5,1
    80003d78:	bdad                	j	80003bf2 <main+0x12a>
    80003d7a:	854a                	mv	a0,s2
    80003d7c:	9e2fd0ef          	jal	80000f5e <libmin_printf>
    80003d80:	404c                	lw	a1,4(s0)
    80003d82:	2585                	addw	a1,a1,1
    80003d84:	bd61                	j	80003c1c <main+0x154>
    80003d86:	854a                	mv	a0,s2
    80003d88:	9d6fd0ef          	jal	80000f5e <libmin_printf>
    80003d8c:	405c                	lw	a5,4(s0)
    80003d8e:	4058                	lw	a4,4(s0)
    80003d90:	08f42623          	sw	a5,140(s0)
    80003d94:	2725                	addw	a4,a4,9
    80003d96:	00f75863          	bge	a4,a5,80003da6 <main+0x2de>
    80003d9a:	4529                	li	a0,10
    80003d9c:	ae0fd0ef          	jal	8000107c <libmin_putc>
    80003da0:	404c                	lw	a1,4(s0)
    80003da2:	25a9                	addw	a1,a1,10
    80003da4:	b56d                	j	80003c4e <main+0x186>
    80003da6:	97ce                	add	a5,a5,s3
    80003da8:	0007c583          	lbu	a1,0(a5)
    80003dac:	8552                	mv	a0,s4
    80003dae:	48b42a23          	sw	a1,1172(s0)
    80003db2:	0ff5f593          	zext.b	a1,a1
    80003db6:	9a8fd0ef          	jal	80000f5e <libmin_printf>
    80003dba:	08c42783          	lw	a5,140(s0)
    80003dbe:	2785                	addw	a5,a5,1
    80003dc0:	b7f9                	j	80003d8e <main+0x2c6>
    80003dc2:	97a2                	add	a5,a5,s0
    80003dc4:	0907c783          	lbu	a5,144(a5)
    80003dc8:	0187971b          	sllw	a4,a5,0x18
    80003dcc:	4187571b          	sraw	a4,a4,0x18
    80003dd0:	00074663          	bltz	a4,80003ddc <main+0x314>
    80003dd4:	078a                	sll	a5,a5,0x2
    80003dd6:	97ca                	add	a5,a5,s2
    80003dd8:	439c                	lw	a5,0(a5)
    80003dda:	eb89                	bnez	a5,80003dec <main+0x324>
    80003ddc:	8526                	mv	a0,s1
    80003dde:	980fd0ef          	jal	80000f5e <libmin_printf>
    80003de2:	08c42783          	lw	a5,140(s0)
    80003de6:	2785                	addw	a5,a5,1
    80003de8:	08f42623          	sw	a5,140(s0)
    80003dec:	405c                	lw	a5,4(s0)
    80003dee:	2785                	addw	a5,a5,1
    80003df0:	b569                	j	80003c7a <main+0x1b2>
    80003df2:	4701                	li	a4,0
    80003df4:	02000593          	li	a1,32
    80003df8:	08400693          	li	a3,132
    80003dfc:	00e48633          	add	a2,s1,a4
    80003e00:	00b60023          	sb	a1,0(a2)
    80003e04:	0705                	add	a4,a4,1
    80003e06:	fed71be3          	bne	a4,a3,80003dfc <main+0x334>
    80003e0a:	97a2                	add	a5,a5,s0
    80003e0c:	08e42623          	sw	a4,140(s0)
    80003e10:	0907c703          	lbu	a4,144(a5)
    80003e14:	00000797          	auipc	a5,0x0
    80003e18:	1fc78793          	add	a5,a5,508 # 80004010 <asc_ptr>
    80003e1c:	00003a97          	auipc	s5,0x3
    80003e20:	af4a8a93          	add	s5,s5,-1292 # 80006910 <__clz_tab+0x228>
    80003e24:	070a                	sll	a4,a4,0x2
    80003e26:	97ba                	add	a5,a5,a4
    80003e28:	439c                	lw	a5,0(a5)
    80003e2a:	00000997          	auipc	s3,0x0
    80003e2e:	3e698993          	add	s3,s3,998 # 80004210 <data_table>
    80003e32:	02300b13          	li	s6,35
    80003e36:	50f42e23          	sw	a5,1308(s0)
    80003e3a:	00003797          	auipc	a5,0x3
    80003e3e:	5007a323          	sw	zero,1286(a5) # 80007340 <term>
    80003e42:	00003797          	auipc	a5,0x3
    80003e46:	5007a123          	sw	zero,1282(a5) # 80007344 <max>
    80003e4a:	00003797          	auipc	a5,0x3
    80003e4e:	4e07af23          	sw	zero,1278(a5) # 80007348 <linen>
    80003e52:	52042783          	lw	a5,1312(s0)
    80003e56:	c781                	beqz	a5,80003e5e <main+0x396>
    80003e58:	405c                	lw	a5,4(s0)
    80003e5a:	2785                	addw	a5,a5,1
    80003e5c:	b5b1                	j	80003ca8 <main+0x1e0>
    80003e5e:	51c42583          	lw	a1,1308(s0)
    80003e62:	00b97863          	bgeu	s2,a1,80003e72 <main+0x3aa>
    80003e66:	8556                	mv	a0,s5
    80003e68:	8f6fd0ef          	jal	80000f5e <libmin_printf>
    80003e6c:	4505                	li	a0,1
    80003e6e:	ba8fc0ef          	jal	80000216 <libmin_fail>
    80003e72:	51c42703          	lw	a4,1308(s0)
    80003e76:	00e987b3          	add	a5,s3,a4
    80003e7a:	0007c683          	lbu	a3,0(a5)
    80003e7e:	07f00793          	li	a5,127
    80003e82:	0006861b          	sext.w	a2,a3
    80003e86:	48c42a23          	sw	a2,1172(s0)
    80003e8a:	0ac7da63          	bge	a5,a2,80003f3e <main+0x476>
    80003e8e:	0c000793          	li	a5,192
    80003e92:	00c7d763          	bge	a5,a2,80003ea0 <main+0x3d8>
    80003e96:	52042783          	lw	a5,1312(s0)
    80003e9a:	2785                	addw	a5,a5,1
    80003e9c:	52f42023          	sw	a5,1312(s0)
    80003ea0:	03f6f693          	and	a3,a3,63
    80003ea4:	48d42a23          	sw	a3,1172(s0)
    80003ea8:	5bfd                	li	s7,-1
    80003eaa:	49442783          	lw	a5,1172(s0)
    80003eae:	52842703          	lw	a4,1320(s0)
    80003eb2:	4601                	li	a2,0
    80003eb4:	37fd                	addw	a5,a5,-1
    80003eb6:	0007069b          	sext.w	a3,a4
    80003eba:	03779b63          	bne	a5,s7,80003ef0 <main+0x428>
    80003ebe:	48f42a23          	sw	a5,1172(s0)
    80003ec2:	c219                	beqz	a2,80003ec8 <main+0x400>
    80003ec4:	52e42423          	sw	a4,1320(s0)
    80003ec8:	4781                	li	a5,0
    80003eca:	02000613          	li	a2,32
    80003ece:	08400713          	li	a4,132
    80003ed2:	00f486b3          	add	a3,s1,a5
    80003ed6:	00c68023          	sb	a2,0(a3)
    80003eda:	0785                	add	a5,a5,1
    80003edc:	fee79be3          	bne	a5,a4,80003ed2 <main+0x40a>
    80003ee0:	51c42703          	lw	a4,1308(s0)
    80003ee4:	08f42623          	sw	a5,140(s0)
    80003ee8:	2705                	addw	a4,a4,1
    80003eea:	50e42e23          	sw	a4,1308(s0)
    80003eee:	b795                	j	80003e52 <main+0x38a>
    80003ef0:	00ea0633          	add	a2,s4,a4
    80003ef4:	00064503          	lbu	a0,0(a2)
    80003ef8:	fff7859b          	addw	a1,a5,-1
    80003efc:	0705                	add	a4,a4,1
    80003efe:	4605                	li	a2,1
    80003f00:	cd0d                	beqz	a0,80003f3a <main+0x472>
    80003f02:	2685                	addw	a3,a3,1
    80003f04:	48f42a23          	sw	a5,1172(s0)
    80003f08:	52d42423          	sw	a3,1320(s0)
    80003f0c:	4781                	li	a5,0
    80003f0e:	52442703          	lw	a4,1316(s0)
    80003f12:	08f42623          	sw	a5,140(s0)
    80003f16:	00f75663          	bge	a4,a5,80003f22 <main+0x45a>
    80003f1a:	4529                	li	a0,10
    80003f1c:	960fd0ef          	jal	8000107c <libmin_putc>
    80003f20:	b769                	j	80003eaa <main+0x3e2>
    80003f22:	97a2                	add	a5,a5,s0
    80003f24:	0087c703          	lbu	a4,8(a5)
    80003f28:	c709                	beqz	a4,80003f32 <main+0x46a>
    80003f2a:	4987c503          	lbu	a0,1176(a5)
    80003f2e:	94efd0ef          	jal	8000107c <libmin_putc>
    80003f32:	08c42783          	lw	a5,140(s0)
    80003f36:	2785                	addw	a5,a5,1
    80003f38:	bfd9                	j	80003f0e <main+0x446>
    80003f3a:	87ae                	mv	a5,a1
    80003f3c:	bfad                	j	80003eb6 <main+0x3ee>
    80003f3e:	0017079b          	addw	a5,a4,1
    80003f42:	97ce                	add	a5,a5,s3
    80003f44:	0007c783          	lbu	a5,0(a5)
    80003f48:	85b6                	mv	a1,a3
    80003f4a:	4501                	li	a0,0
    80003f4c:	00f608bb          	addw	a7,a2,a5
    80003f50:	52f42623          	sw	a5,1324(s0)
    80003f54:	53142223          	sw	a7,1316(s0)
    80003f58:	87c6                	mv	a5,a7
    80003f5a:	0005881b          	sext.w	a6,a1
    80003f5e:	01184963          	blt	a6,a7,80003f70 <main+0x4a8>
    80003f62:	c509                	beqz	a0,80003f6c <main+0x4a4>
    80003f64:	9f95                	subw	a5,a5,a3
    80003f66:	9fb1                	addw	a5,a5,a2
    80003f68:	48f42a23          	sw	a5,1172(s0)
    80003f6c:	2709                	addw	a4,a4,2
    80003f6e:	bfb5                	j	80003eea <main+0x422>
    80003f70:	00b48533          	add	a0,s1,a1
    80003f74:	01650023          	sb	s6,0(a0)
    80003f78:	0585                	add	a1,a1,1
    80003f7a:	4505                	li	a0,1
    80003f7c:	bff9                	j	80003f5a <main+0x492>

Disassembly of section .vectors:

0000000080003f7e <_vectors_start-0x2>:
	...

0000000080003f80 <_vectors_start>:
    80003f80:	9f8fc06f          	j	80000178 <default_exc_handler>
    80003f84:	9f4fc06f          	j	80000178 <default_exc_handler>
    80003f88:	9f0fc06f          	j	80000178 <default_exc_handler>
    80003f8c:	9ecfc06f          	j	80000178 <default_exc_handler>
    80003f90:	9e8fc06f          	j	80000178 <default_exc_handler>
    80003f94:	9e4fc06f          	j	80000178 <default_exc_handler>
    80003f98:	9e0fc06f          	j	80000178 <default_exc_handler>
    80003f9c:	9e8fc06f          	j	80000184 <timer_handler>
    80003fa0:	9d8fc06f          	j	80000178 <default_exc_handler>
    80003fa4:	9d4fc06f          	j	80000178 <default_exc_handler>
    80003fa8:	9d0fc06f          	j	80000178 <default_exc_handler>
    80003fac:	9ccfc06f          	j	80000178 <default_exc_handler>
    80003fb0:	9c8fc06f          	j	80000178 <default_exc_handler>
    80003fb4:	9c4fc06f          	j	80000178 <default_exc_handler>
    80003fb8:	9c0fc06f          	j	80000178 <default_exc_handler>
    80003fbc:	9bcfc06f          	j	80000178 <default_exc_handler>
    80003fc0:	9b8fc06f          	j	80000178 <default_exc_handler>
    80003fc4:	9b4fc06f          	j	80000178 <default_exc_handler>
    80003fc8:	9b0fc06f          	j	80000178 <default_exc_handler>
    80003fcc:	9acfc06f          	j	80000178 <default_exc_handler>
    80003fd0:	9a8fc06f          	j	80000178 <default_exc_handler>
    80003fd4:	9a4fc06f          	j	80000178 <default_exc_handler>
    80003fd8:	9a0fc06f          	j	80000178 <default_exc_handler>
    80003fdc:	99cfc06f          	j	80000178 <default_exc_handler>
    80003fe0:	998fc06f          	j	80000178 <default_exc_handler>
    80003fe4:	994fc06f          	j	80000178 <default_exc_handler>
    80003fe8:	990fc06f          	j	80000178 <default_exc_handler>
    80003fec:	98cfc06f          	j	80000178 <default_exc_handler>
    80003ff0:	988fc06f          	j	80000178 <default_exc_handler>
    80003ff4:	984fc06f          	j	80000178 <default_exc_handler>
    80003ff8:	980fc06f          	j	80000178 <default_exc_handler>
    80003ffc:	0000                	.insn	2, 0x
    80003ffe:	0000                	.insn	2, 0x
    80004000:	8c2fc06f          	j	800000c2 <reset_handler>
